
 Start         Length     Name                   Class
 0001:00401000 000299BCH .text                   CODE
 0002:0042B000 00004BE8H .data                   DATA
 0003:00430000 0001A7E8H .bss                    BSS
 0004:00000000 00000230H .tls                    TLS
 0005:00452000 00002304H .pdata                  PDATA


Detailed map of segments

 0001:00000000 000106DC C=CODE     S=.text    G=(none)   M=System   ALIGN=4
 0001:000106DC 00001744 C=CODE     S=.text    G=(none)   M=SysInit  ALIGN=4
 0001:00011E20 00000020 C=CODE     S=.text    G=(none)   M=System.Types ALIGN=4
 0001:00011E40 00000020 C=CODE     S=.text    G=(none)   M=System.UITypes ALIGN=4
 0001:00011E60 0000045C C=CODE     S=.text    G=(none)   M=Winapi.Windows ALIGN=4
 0001:000122BC 000005B4 C=CODE     S=.text    G=(none)   M=System.SysConst ALIGN=4
 0001:00012870 00000020 C=CODE     S=.text    G=(none)   M=Winapi.ImageHlp ALIGN=4
 0001:00012890 00000020 C=CODE     S=.text    G=(none)   M=Winapi.SHFolder ALIGN=4
 0001:000128B0 00000050 C=CODE     S=.text    G=(none)   M=Winapi.PsAPI ALIGN=4
 0001:00012900 00000170 C=CODE     S=.text    G=(none)   M=System.RTLConsts ALIGN=4
 0001:00012A70 00005000 C=CODE     S=.text    G=(none)   M=System.Character ALIGN=4
 0001:00017A70 000004F4 C=CODE     S=.text    G=(none)   M=System.Internal.ExcUtils ALIGN=4
 0001:00017F64 0000E05C C=CODE     S=.text    G=(none)   M=System.SysUtils ALIGN=4
 0001:00025FC0 000039FC C=CODE     S=.text    G=(none)   M=FullDebugMode_DLL_TestApp ALIGN=4
 0002:00000000 00002984 C=DATA     S=.data    G=DGROUP   M=System   ALIGN=4
 0002:00002984 0000015C C=DATA     S=.data    G=DGROUP   M=SysInit  ALIGN=4
 0002:00002AE0 00000008 C=DATA     S=.data    G=DGROUP   M=System.Types ALIGN=4
 0002:00002AE8 00000008 C=DATA     S=.data    G=DGROUP   M=System.UITypes ALIGN=4
 0002:00002AF0 00000070 C=DATA     S=.data    G=DGROUP   M=Winapi.Windows ALIGN=4
 0002:00002B60 00000008 C=DATA     S=.data    G=DGROUP   M=System.SysConst ALIGN=4
 0002:00002B68 00000008 C=DATA     S=.data    G=DGROUP   M=Winapi.ImageHlp ALIGN=4
 0002:00002B70 00000008 C=DATA     S=.data    G=DGROUP   M=Winapi.SHFolder ALIGN=4
 0002:00002B78 0000000C C=DATA     S=.data    G=DGROUP   M=Winapi.PsAPI ALIGN=4
 0002:00002B84 00000008 C=DATA     S=.data    G=DGROUP   M=System.RTLConsts ALIGN=4
 0002:00002B8C 00000030 C=DATA     S=.data    G=DGROUP   M=System.Character ALIGN=4
 0002:00002BBC 00000280 C=DATA     S=.data    G=DGROUP   M=System.Internal.ExcUtils ALIGN=4
 0002:00002E3C 00001910 C=DATA     S=.data    G=DGROUP   M=System.SysUtils ALIGN=4
 0002:0000474C 000000AC C=DATA     S=.data    G=DGROUP   M=FullDebugMode_DLL_TestApp ALIGN=4
 0003:00000000 00006260 C=BSS      S=.bss     G=DGROUP   M=System   ALIGN=4
 0003:00006260 00000048 C=BSS      S=.bss     G=DGROUP   M=SysInit  ALIGN=4
 0003:000062A8 00000004 C=BSS      S=.bss     G=DGROUP   M=System.Types ALIGN=4
 0003:000062AC 00000004 C=BSS      S=.bss     G=DGROUP   M=System.UITypes ALIGN=4
 0003:000062B0 00000010 C=BSS      S=.bss     G=DGROUP   M=Winapi.Windows ALIGN=4
 0003:000062C0 00000004 C=BSS      S=.bss     G=DGROUP   M=System.SysConst ALIGN=4
 0003:000062C4 00000004 C=BSS      S=.bss     G=DGROUP   M=Winapi.ImageHlp ALIGN=4
 0003:000062C8 00000004 C=BSS      S=.bss     G=DGROUP   M=Winapi.SHFolder ALIGN=4
 0003:000062CC 0000000C C=BSS      S=.bss     G=DGROUP   M=Winapi.PsAPI ALIGN=4
 0003:000062D8 00000004 C=BSS      S=.bss     G=DGROUP   M=System.RTLConsts ALIGN=4
 0003:000062DC 00000044 C=BSS      S=.bss     G=DGROUP   M=System.Character ALIGN=4
 0003:00006320 00000004 C=BSS      S=.bss     G=DGROUP   M=System.Internal.ExcUtils ALIGN=4
 0003:00006324 0000441C C=BSS      S=.bss     G=DGROUP   M=System.SysUtils ALIGN=4
 0003:0000A740 000100A8 C=BSS      S=.bss     G=DGROUP   M=FullDebugMode_DLL_TestApp ALIGN=4
 0004:00000000 00000224 C=TLS      S=.tls     G=(none)   M=System   ALIGN=4
 0004:00000224 0000000C C=TLS      S=.tls     G=(none)   M=System.SysUtils ALIGN=4
 0005:00000000 00001494 C=PDATA    S=.pdata   G=(none)   M=System   ALIGN=4
 0005:00001494 0000015C C=PDATA    S=.pdata   G=(none)   M=SysInit  ALIGN=4
 0005:000015F0 00000018 C=PDATA    S=.pdata   G=(none)   M=System.Types ALIGN=4
 0005:00001608 00000018 C=PDATA    S=.pdata   G=(none)   M=System.UITypes ALIGN=4
 0005:00001620 00000048 C=PDATA    S=.pdata   G=(none)   M=Winapi.Windows ALIGN=4
 0005:00001668 00000018 C=PDATA    S=.pdata   G=(none)   M=System.SysConst ALIGN=4
 0005:00001680 00000018 C=PDATA    S=.pdata   G=(none)   M=Winapi.ImageHlp ALIGN=4
 0005:00001698 00000018 C=PDATA    S=.pdata   G=(none)   M=Winapi.SHFolder ALIGN=4
 0005:000016B0 00000018 C=PDATA    S=.pdata   G=(none)   M=Winapi.PsAPI ALIGN=4
 0005:000016C8 00000018 C=PDATA    S=.pdata   G=(none)   M=System.RTLConsts ALIGN=4
 0005:000016E0 00000054 C=PDATA    S=.pdata   G=(none)   M=System.Character ALIGN=4
 0005:00001734 00000024 C=PDATA    S=.pdata   G=(none)   M=System.Internal.ExcUtils ALIGN=4
 0005:00001758 00000B4C C=PDATA    S=.pdata   G=(none)   M=System.SysUtils ALIGN=4
 0005:000022A4 00000060 C=PDATA    S=.pdata   G=(none)   M=FullDebugMode_DLL_TestApp ALIGN=4


  Address             Publics by Name

 0005:000022C8       FullDebugMode_DLL_TestApp.$pdata$_ZN25Fulldebugmode_dll_testapp12FinalizationEv
 0005:000022D4       FullDebugMode_DLL_TestApp.$pdata$_ZN25Fulldebugmode_dll_testapp14initializationEv
 0005:000022B0       FullDebugMode_DLL_TestApp.$pdata$_ZN25Fulldebugmode_dll_testapp17TestRawStackTraceEv
 0005:000022A4       FullDebugMode_DLL_TestApp.$pdata$_ZN25Fulldebugmode_dll_testapp24TestFrameBasedStackTraceEv
 0005:000022BC       FullDebugMode_DLL_TestApp.$pdata$_ZN25Fulldebugmode_dll_testapp7RunTestEv
 0002:00004770       FullDebugMode_DLL_TestApp.$unwind$_ZN25Fulldebugmode_dll_testapp12FinalizationEv
 0002:00004778       FullDebugMode_DLL_TestApp.$unwind$_ZN25Fulldebugmode_dll_testapp14initializationEv
 0002:00004758       FullDebugMode_DLL_TestApp.$unwind$_ZN25Fulldebugmode_dll_testapp17TestRawStackTraceEv
 0002:0000474C       FullDebugMode_DLL_TestApp.$unwind$_ZN25Fulldebugmode_dll_testapp24TestFrameBasedStackTraceEv
 0002:00004764       FullDebugMode_DLL_TestApp.$unwind$_ZN25Fulldebugmode_dll_testapp7RunTestEv
 0003:0001A7E0       FullDebugMode_DLL_TestApp.E
 0001:00026130       FullDebugMode_DLL_TestApp.Finalization
 0001:00026140       FullDebugMode_DLL_TestApp.FullDebugMode_DLL_TestApp
 0001:00025FC0       FullDebugMode_DLL_TestApp.GetFrameBasedStackTrace
 0001:00025FD0       FullDebugMode_DLL_TestApp.GetRawStackTrace
 0001:00025FE0       FullDebugMode_DLL_TestApp.LogStackTrace
 0003:0000A740       FullDebugMode_DLL_TestApp.LReturnAddresses
 0003:0000A7E0       FullDebugMode_DLL_TestApp.LTextBuffer
 0001:00026110       FullDebugMode_DLL_TestApp.RunTest
 0001:00025FF0       FullDebugMode_DLL_TestApp.TestFrameBasedStackTrace
 0001:00026080       FullDebugMode_DLL_TestApp.TestRawStackTrace
 0005:000014AC       SysInit.$pdata$_ZN7Sysinit10GetTlsSizeEv
 0005:000015D8       SysInit.$pdata$_ZN7Sysinit12FinalizationEv
 0005:000014B8       SysInit.$pdata$_ZN7Sysinit13InitThreadTLSEv
 0005:000014A0       SysInit.$pdata$_ZN7Sysinit14AllocTlsBufferEi
 0005:000015E4       SysInit.$pdata$_ZN7Sysinit14initializationEv
 0005:000014DC       SysInit.$pdata$_ZN7Sysinit14__dbkDummyProcEv
 0005:000014E8       SysInit.$pdata$_ZN7Sysinit14__dbkFCallArgsEPvS0_S0_S0_S0_S0_S0_S0_S0_S0_S0_S0_S0_S0_S0_S0_S0_S0_S0_S0_S0_S0_S0_S0_S0_S0_S0_S0_S0_S0_
 0005:000014D0       SysInit.$pdata$_ZN7Sysinit16InitializeModuleEv
 0005:00001494       SysInit.$pdata$_ZN7Sysinit17_DelayLoadHelper2ERPvS0_
 0005:000014F4       SysInit.$pdata$_ZN7Sysinit19__dbk_fcall_wrapperEv
 0005:000014C4       SysInit.$pdata$_ZN7Sysinit7_GetTlsEv
 0005:0000150C       SysInit.$pdata$_ZN7Sysinit8_InitExeEPv
 0002:000029E0       SysInit.$unwind$_ZN7Sysinit10GetTlsSizeEv
 0002:00002AD4       SysInit.$unwind$_ZN7Sysinit12FinalizationEv
 0002:000029E4       SysInit.$unwind$_ZN7Sysinit13InitThreadTLSEv
 0002:000029A0       SysInit.$unwind$_ZN7Sysinit14AllocTlsBufferEi
 0002:00002ADC       SysInit.$unwind$_ZN7Sysinit14initializationEv
 0002:000029FC       SysInit.$unwind$_ZN7Sysinit14__dbkDummyProcEv
 0002:00002A00       SysInit.$unwind$_ZN7Sysinit14__dbkFCallArgsEPvS0_S0_S0_S0_S0_S0_S0_S0_S0_S0_S0_S0_S0_S0_S0_S0_S0_S0_S0_S0_S0_S0_S0_S0_S0_S0_S0_S0_S0_
 0002:000029F4       SysInit.$unwind$_ZN7Sysinit16InitializeModuleEv
 0002:00002998       SysInit.$unwind$_ZN7Sysinit17_DelayLoadHelper2ERPvS0_
 0002:00002A08       SysInit.$unwind$_ZN7Sysinit19__dbk_fcall_wrapperEv
 0002:000029EC       SysInit.$unwind$_ZN7Sysinit7_GetTlsEv
 0002:00002A44       SysInit.$unwind$_ZN7Sysinit8_InitExeEPv
 0005:00001578       SysInit..$pdata$$pdata$??0ULI@@QEAA@PEBUImgDelayDescr@@@Z
 0005:000015A8       SysInit..$pdata$$pdata$??1ULI@@QEAA@XZ
 0005:00001584       SysInit..$pdata$$pdata$??2ULI@@SAPEAX_K@Z
 0005:000015B4       SysInit..$pdata$$pdata$??3ULI@@SAXPEAX@Z
 0005:0000159C       SysInit..$pdata$$pdata$??_GULI@@QEAAPEAXI@Z
 0005:00001590       SysInit..$pdata$$pdata$?CountOfImports@@YAIPEBU_IMAGE_THUNK_DATA64@@@Z
 0005:00001524       SysInit..$pdata$$pdata$?FLoadedAtPreferredAddress@@YA_NPEAU_IMAGE_NT_HEADERS64@@PEAUHINSTANCE__@@@Z
 0005:00001548       SysInit..$pdata$$pdata$?OverlayIAT@@YAXPEAU_IMAGE_THUNK_DATA64@@PEBU1@@Z
 0005:000015C0       SysInit..$pdata$$pdata$?Unlink@ULI@@QEAAXXZ
 0005:00001554       SysInit..$pdata$$pdata$?__memcpy@@YAPEAXPEAXPEBX_K@Z
 0005:0000153C       SysInit..$pdata$$pdata$?__strlen@@YA_KPEBD@Z
 0005:000015CC       SysInit..$pdata$$pdata$HRESULT_FROM_WIN32
 0005:0000156C       SysInit..$pdata$$pdata$ShutdownDelayHelp2
 0005:00001518       SysInit..$pdata$$pdata$__delayLoadHelper2
 0005:00001530       SysInit..$pdata$$pdata$__FUnloadDelayLoadedDLL2
 0005:00001560       SysInit..$pdata$$pdata$__HrLoadAllImportsForDll
 0002:00002A94       SysInit...$unwind$??0ULI@@QEAA@PEBUImgDelayDescr@@@Z
 0002:00002AB4       SysInit...$unwind$??1ULI@@QEAA@XZ
 0002:00002A9C       SysInit...$unwind$??2ULI@@SAPEAX_K@Z
 0002:00002ABC       SysInit...$unwind$??3ULI@@SAXPEAX@Z
 0002:00002AAC       SysInit...$unwind$??_GULI@@QEAAPEAXI@Z
 0002:00002AA4       SysInit...$unwind$?CountOfImports@@YAIPEBU_IMAGE_THUNK_DATA64@@@Z
 0002:00002A58       SysInit...$unwind$?FLoadedAtPreferredAddress@@YA_NPEAU_IMAGE_NT_HEADERS64@@PEAUHINSTANCE__@@@Z
 0002:00002A74       SysInit...$unwind$?OverlayIAT@@YAXPEAU_IMAGE_THUNK_DATA64@@PEBU1@@Z
 0002:00002AC4       SysInit...$unwind$?Unlink@ULI@@QEAAXXZ
 0002:00002A7C       SysInit...$unwind$?__memcpy@@YAPEAXPEAXPEBX_K@Z
 0002:00002A6C       SysInit...$unwind$?__strlen@@YA_KPEBD@Z
 0002:00002ACC       SysInit...$unwind$HRESULT_FROM_WIN32
 0002:00002A8C       SysInit...$unwind$ShutdownDelayHelp2
 0002:00002A4C       SysInit...$unwind$__delayLoadHelper2
 0002:00002A60       SysInit...$unwind$__FUnloadDelayLoadedDLL2
 0002:00002A84       SysInit...$unwind$__HrLoadAllImportsForDll
 0001:00011DD0       SysInit...??$PFromRva@PEAP6A_JXZ@@YAPEAP6A_JXZK@Z
 0001:00011D30       SysInit...??$PFromRva@PEAPEAUHINSTANCE__@@@@YAPEAPEAUHINSTANCE__@@K@Z
 0001:00011D90       SysInit...??$PFromRva@PEAU_IMAGE_IMPORT_BY_NAME@@@@YAPEAU_IMAGE_IMPORT_BY_NAME@@K@Z
 0001:00011D50       SysInit...??$PFromRva@PEAU_IMAGE_THUNK_DATA64@@@@YAPEAU_IMAGE_THUNK_DATA64@@K@Z
 0001:00011D10       SysInit...??$PFromRva@PEBD@@YAPEBDK@Z
 0001:00011DB0       SysInit...??$PFromRva@PEBUImgDelayDescr@@@@YAPEBUImgDelayDescr@@K@Z
 0001:00011D70       SysInit...??$PFromRva@PEBU_IMAGE_THUNK_DATA64@@@@YAPEBU_IMAGE_THUNK_DATA64@@K@Z
 0001:00011B20       SysInit...??0ULI@@QEAA@PEBUImgDelayDescr@@@Z
 0001:00011C30       SysInit...??1ULI@@QEAA@XZ
 0001:00011B50       SysInit...??2ULI@@SAPEAX_K@Z
 0001:00011C50       SysInit...??3ULI@@SAXPEAX@Z
 0001:00011BF0       SysInit...??_GULI@@QEAAPEAXI@Z
 0001:00011BA0       SysInit...?CountOfImports@@YAIPEBU_IMAGE_THUNK_DATA64@@@Z
 0001:00011610       SysInit...?FLoadedAtPreferredAddress@@YA_NPEAU_IMAGE_NT_HEADERS64@@PEAUHINSTANCE__@@@Z
 0001:00011B00       SysInit...?IndexFromPImgThunkData@@YAIPEBU_IMAGE_THUNK_DATA64@@0@Z
 0001:00011B70       SysInit...?Link@ULI@@QEAAXXZ
 0001:00011900       SysInit...?OverlayIAT@@YAXPEAU_IMAGE_THUNK_DATA64@@PEBU1@@Z
 0001:000115D0       SysInit...?PinhFromImageBase@@YAPEAU_IMAGE_NT_HEADERS64@@PEAUHINSTANCE__@@@Z
 0001:000115F0       SysInit...?TimeStampOfImage@@YAKPEAU_IMAGE_NT_HEADERS64@@@Z
 0001:00011C70       SysInit...?Unlink@ULI@@QEAAXXZ
 0001:00011880       SysInit...?__memcmp@@YAHPEBX0_K@Z
 0001:00011940       SysInit...?__memcpy@@YAPEAXPEAXPEBX_K@Z
 0001:00011830       SysInit...?__strlen@@YA_KPEBD@Z
 0001:00011CD0       SysInit...HRESULT_FROM_WIN32
 0003:000062A0       SysInit...__puiHead
 0003:00006290       SysInit..1
 0001:00010780       SysInit.@DelayLoadHelper2
 0001:00010820       SysInit.@GetTls
 0001:00011000       SysInit.@InitExe
 0001:000108A0       SysInit.@_dbkDummyProc
 0001:000108B0       SysInit.@_dbkFCallArgs
 0001:00010CB0       SysInit.@_dbk_fcall_wrapper
 0001:00011080       SysInit.@_delayLoadHelper2
 0001:00011650       SysInit.@_FUnloadDelayLoadedDLL2
 0001:000119B0       SysInit.@_HrLoadAllImportsForDll
 0003:00006288       SysInit.@_pfnDliFailureHook2
 0003:00006280       SysInit.@_pfnDliNotifyHook2
 0001:00010790       SysInit.AllocTlsBuffer
 0003:00006278       SysInit.dbkFCallWrapperAddr
 0002:00002990       SysInit.DelayLoadHelper
 0001:00011DF0       SysInit.Finalization
 0001:000106E0       SysInit.FreeLibrary
 0001:00010740       SysInit.GetLastError
 0001:000106F0       SysInit.GetModuleHandle
 0001:00010770       SysInit.GetProcAddress
 0001:000107B0       SysInit.GetTlsSize
 0003:00006268       SysInit.HInstance
 0001:00010880       SysInit.InitializeModule
 0001:000107C0       SysInit.InitThreadTLS
 0001:00010750       SysInit.LoadLibraryA
 0001:00010700       SysInit.LocalAlloc
 0001:00010710       SysInit.LocalFree
 0002:000029A8       SysInit.Module
 0003:00006261       SysInit.ModuleIsCpp
 0003:00006260       SysInit.ModuleIsLib
 0002:00002988       SysInit.PtrToNil
 0001:00010760       SysInit.RaiseException
 0001:00011AF0       SysInit.ShutdownDelayHelp2
 0001:00011E10       SysInit.SysInit
 0003:00006298       SysInit.tlsBuffer
 0001:00010720       SysInit.TlsGetValue
 0002:00002984       SysInit.TlsIndex
 0004:00000230       SysInit.TlsLast
 0001:00010730       SysInit.TlsSetValue
 0003:FFFD0000       SysInit.__ImageBase
 0005:0000021C       System.$pdata$_ZN6System10ExceptAddrEv
 0005:00000000       System.$pdata$_ZN6System10GetCmdShowEv
 0005:00000E88       System.$pdata$_ZN6System10MoveRecordEPvS0_S0_
 0005:00000234       System.$pdata$_ZN6System10RunErrorAtEiPv
 0005:00000F84       System.$pdata$_ZN6System10StringCopyEPwiS0_
 0005:000000C0       System.$pdata$_ZN6System10SysFreeMemEPv
 0005:00000E94       System.$pdata$_ZN6System10_CopyArrayEPvS0_S0_y
 0005:0000114C       System.$pdata$_ZN6System10_IntfClearERNS_15DelphiInterfaceINS_10IInterfaceEEE
 0005:00000C90       System.$pdata$_ZN6System10_PWCharLenEPw
 0005:0000030C       System.$pdata$_ZN6System10_ResetTextERNS_8TTextRecE
 0005:00000DE0       System.$pdata$_ZN6System10_UStrEqualENS_13UnicodeStringES0_
 0005:00000330       System.$pdata$_ZN6System11FileNOPProcEPv
 0005:00001410       System.$pdata$_ZN6System11GetCPUCountEv
 0005:00000E10       System.$pdata$_ZN6System11SetCodePageERNS_11AnsiStringTILt65535EEEtb
 0005:00000264       System.$pdata$_ZN6System11SetInOutResEi
 0005:000000E4       System.$pdata$_ZN6System11ShowMessageEPcS0_
 0005:000000D8       System.$pdata$_ZN6System11SysAllocMemEx
 0005:00001248       System.$pdata$_ZN6System11TInstBucket10InitializeEv
 0005:00001224       System.$pdata$_ZN6System11TInstBucket11AddInstItemEiPNS_9TInstItemE
 0005:00001230       System.$pdata$_ZN6System11TInstBucket12FindInstItemEPvRi
 0005:00001260       System.$pdata$_ZN6System11TInstBucket14RemoveInstItemEPv
 0005:00001254       System.$pdata$_ZN6System11TInstBucket4LockEv
 0005:0000126C       System.$pdata$_ZN6System11TInstBucket6UnlockEv
 0005:0000123C       System.$pdata$_ZN6System11TInstBucket8FinalizeEv
 0005:00000750       System.$pdata$_ZN6System11UTF8CompareERKNS_11SmallStringILh255EEES3_
 0005:00000E7C       System.$pdata$_ZN6System11_CopyRecordEPvS0_S0_
 0005:00000A44       System.$pdata$_ZN6System11_DoneExceptEv
 0005:00001170       System.$pdata$_ZN6System11_IntfAddRefENS_15DelphiInterfaceINS_10IInterfaceEEE
 0005:00000A2C       System.$pdata$_ZN6System11_RaiseAgainEv
 0005:000001EC       System.$pdata$_ZN6System11_ReallocMemERPvx
 0005:00000318       System.$pdata$_ZN6System11_RewritTextERNS_8TTextRecE
 0005:00000BC4       System.$pdata$_ZN6System11_UStrAddRefEPv
 0005:00000480       System.$pdata$_ZN6System11_Write0CharERNS_8TTextRecEc
 0005:00000444       System.$pdata$_ZN6System11_WriteBytesERNS_8TTextRecEPKvi
 0005:00000210       System.$pdata$_ZN6System12ExceptObjectEv
 0005:00001464       System.$pdata$_ZN6System12FinalizationEv
 0005:00000294       System.$pdata$_ZN6System12FRaiseExceptEjb
 0005:000009A8       System.$pdata$_ZN6System12NotifyExceptEy
 0005:000012A8       System.$pdata$_ZN6System12TInstHashMap10InitializeEv
 0005:00001284       System.$pdata$_ZN6System12TInstHashMap11NewInstItemEPv
 0005:00001290       System.$pdata$_ZN6System12TInstHashMap11PopInstItemEv
 0005:00001278       System.$pdata$_ZN6System12TInstHashMap12FreeInstItemEPNS_9TInstItemE
 0005:00001338       System.$pdata$_ZN6System12TInstHashMap12IsRegisteredEPv
 0005:000012D8       System.$pdata$_ZN6System12TInstHashMap15RegisterWeakRefEPvS1_
 0005:000012F0       System.$pdata$_ZN6System12TInstHashMap17UnregisterWeakRefEPvS1_
 0005:00001308       System.$pdata$_ZN6System12TInstHashMap21RegisterWeakMethodRefEPvS1_
 0005:00001320       System.$pdata$_ZN6System12TInstHashMap23UnregisterWeakMethodRefEPvS1_
 0005:000012C0       System.$pdata$_ZN6System12TInstHashMap7DestroyEPv
 0005:0000129C       System.$pdata$_ZN6System12TInstHashMap8FinalizeEv
 0005:00000CCC       System.$pdata$_ZN6System12UniqueStringERNS_13UnicodeStringE
 0005:000013E0       System.$pdata$_ZN6System12UTF8ToStringERKNS_11SmallStringILh255EEE
 0005:000007A4       System.$pdata$_ZN6System12_ClassCreateEPva
 0005:00000F3C       System.$pdata$_ZN6System12_DynArrayAsgERPvS0_S0_
 0005:000003D8       System.$pdata$_ZN6System12_GetAnsiCharERNS_8TTextRecERbt
 0005:000003FC       System.$pdata$_ZN6System12_GetWideCharERNS_8TTextRecERb
 0005:00000AE0       System.$pdata$_ZN6System12_InitImportsEPv
 0005:000006D8       System.$pdata$_ZN6System12_IntfAsClassENS_15DelphiInterfaceINS_10IInterfaceEEEPNS_10TMetaClassE
 0005:00000D08       System.$pdata$_ZN6System12_LStrToPCharENS_11AnsiStringTILt0EEE
 0005:00000A20       System.$pdata$_ZN6System12_RaiseExceptEPNS_7TObjectE
 0005:00000450       System.$pdata$_ZN6System12_WriteSpacesERNS_8TTextRecEi
 0005:00000BDC       System.$pdata$_ZN6System13CharFromWCharEPciPKwi
 0005:00000BD0       System.$pdata$_ZN6System13CharFromWCharEPciPKwii
 0005:00000EB8       System.$pdata$_ZN6System13FinalizeArrayEPvS0_y
 0005:00000A50       System.$pdata$_ZN6System13FinalizeUnitsEv
 0005:000001B0       System.$pdata$_ZN6System13FreeAllMemoryEv
 0005:000006E4       System.$pdata$_ZN6System13GetDynaMethodEPNS_10TMetaClassEs
 0005:00000348       System.$pdata$_ZN6System13InternalCloseEy
 0005:00000378       System.$pdata$_ZN6System13InternalFlushERNS_8TTextRecEPFiS1_E
 0005:000013EC       System.$pdata$_ZN6System13LoadResStringEPNS_13TResStringRecE
 0005:00000990       System.$pdata$_ZN6System13NotifyReRaiseEPNS_7TObjectEPv
 0005:00000EE8       System.$pdata$_ZN6System13SysHasWeakRefEPKv
 0005:000000CC       System.$pdata$_ZN6System13SysReallocMemEPvx
 0005:000013A4       System.$pdata$_ZN6System13UnicodeToUtf8EPcjPwj
 0005:000013B0       System.$pdata$_ZN6System13Utf8ToUnicodeEPwjPcj
 0005:00000BE8       System.$pdata$_ZN6System13WCharFromCharEPwiPKcii
 0005:000007B0       System.$pdata$_ZN6System13_ClassDestroyEPNS_7TObjectE
 0005:00000F18       System.$pdata$_ZN6System13_DynArrayCopyERPvS0_S0_
 0005:0000138C       System.$pdata$_ZN6System13_IntfWeakCopyERNS_15DelphiInterfaceINS_10IInterfaceEEES2_
 0005:00000BAC       System.$pdata$_ZN6System13_LStrArrayClrEPvi
 0005:00000D20       System.$pdata$_ZN6System13_LStrFromUStrERNS_11AnsiStringTILt0EEENS_13UnicodeStringEt
 0005:000003F0       System.$pdata$_ZN6System13_SkipAnsiCharERNS_8TTextRecE
 0005:00000414       System.$pdata$_ZN6System13_SkipWideCharERNS_8TTextRecE
 0005:00000BA0       System.$pdata$_ZN6System13_UStrArrayClrEPvi
 0005:00000D80       System.$pdata$_ZN6System13_UStrFromLStrERNS_13UnicodeStringENS_11AnsiStringTILt0EEE
 0005:00000D44       System.$pdata$_ZN6System13_UStrToPWCharENS_13UnicodeStringE
 0005:00000498       System.$pdata$_ZN6System13_WriteCStringERNS_8TTextRecEPci
 0005:000004C8       System.$pdata$_ZN6System13_WriteLStringERNS_8TTextRecENS_11AnsiStringTILt0EEEi
 0005:000004EC       System.$pdata$_ZN6System13_WriteUStringERNS_8TTextRecENS_13UnicodeStringEi
 0005:00000BB8       System.$pdata$_ZN6System13_WStrArrayClrEPvi
 0005:00000D8C       System.$pdata$_ZN6System13_WStrFromUStrERNS_10WideStringENS_13UnicodeStringE
 0005:000002A0       System.$pdata$_ZN6System14FGetExceptMaskEj
 0005:0000009C       System.$pdata$_ZN6System14FreeLargeBlockEPv
 0005:00000288       System.$pdata$_ZN6System14FSetExceptFlagEjj
 0005:00000150       System.$pdata$_ZN6System14GetObjectClassEPv
 0005:00000FFC       System.$pdata$_ZN6System14GetUILanguagesEt
 0005:0000147C       System.$pdata$_ZN6System14initializationEv
 0005:00000A8C       System.$pdata$_ZN6System14LoadResStringAEPNS_13TResStringRecEt
 0005:00000ABC       System.$pdata$_ZN6System14LoadResStringUEPNS_13TResStringRecE
 0005:00000AA4       System.$pdata$_ZN6System14LoadResStringWEPNS_13TResStringRecE
 0005:000009B4       System.$pdata$_ZN6System14NotifyOnExceptEy
 0005:00001128       System.$pdata$_ZN6System14RegisterModuleEPNS_10TLibModuleE
 0005:00000F30       System.$pdata$_ZN6System14_DynArrayClearERPvS0_
 0005:00000E58       System.$pdata$_ZN6System14_FinalizeArrayEPvS0_y
 0005:00001380       System.$pdata$_ZN6System14_IntfWeakClearERNS_15DelphiInterfaceINS_10IInterfaceEEE
 0005:00000CF0       System.$pdata$_ZN6System14_LStrFromPCharERNS_11AnsiStringTILt0EEEPct
 0005:00000D14       System.$pdata$_ZN6System14_LStrSetLengthERNS_11AnsiStringTILt0EEEit
 0005:00000B64       System.$pdata$_ZN6System14_NewAnsiStringEit
 0005:00000A14       System.$pdata$_ZN6System14_RaiseAtExceptEPNS_7TObjectEPv
 0005:00000CC0       System.$pdata$_ZN6System14_UniqueStringAERNS_11AnsiStringTILt0EEE
 0005:00000CB4       System.$pdata$_ZN6System14_UniqueStringUERNS_13UnicodeStringE
 0005:00000D5C       System.$pdata$_ZN6System14_UStrFromPCharERNS_13UnicodeStringEPc
 0005:00000D50       System.$pdata$_ZN6System14_UStrFromWCharERNS_13UnicodeStringEw
 0005:00000DA4       System.$pdata$_ZN6System14_UStrSetLengthERNS_13UnicodeStringEi
 0005:00000D38       System.$pdata$_ZN6System14_WCharToStringEPNS_11SmallStringILh255EEEwi
 0005:0000048C       System.$pdata$_ZN6System14_Write0CStringERNS_8TTextRecEPc
 0005:000004B0       System.$pdata$_ZN6System14_Write0LStringERNS_8TTextRecENS_11AnsiStringTILt0EEE
 0005:000004E0       System.$pdata$_ZN6System14_Write0UStringERNS_8TTextRecENS_13UnicodeStringE
 0005:00000534       System.$pdata$_ZN6System15InitializeCPUIDEv
 0005:00000084       System.$pdata$_ZN6System15LockLargeBlocksEv
 0005:000000F0       System.$pdata$_ZN6System15NextMediumBlockEPv
 0005:000009C0       System.$pdata$_ZN6System15NotifyAnyExceptEy
 0005:000009D8       System.$pdata$_ZN6System15NotifyTerminateEy
 0005:000009E4       System.$pdata$_ZN6System15NotifyUnhandledEPvS0_
 0005:0000135C       System.$pdata$_ZN6System15RegisterWeakRefEPvPNS_7TObjectE
 0005:00000360       System.$pdata$_ZN6System15TextOpenCleanupERNS_8TTextRecE
 0005:000003B4       System.$pdata$_ZN6System15TryOpenForInputERNS_8TTextRecE
 0005:00000F48       System.$pdata$_ZN6System15_DynArrayAddRefEPv
 0005:00000ED0       System.$pdata$_ZN6System15_DynArrayLengthEPKv
 0005:00000E40       System.$pdata$_ZN6System15_FinalizeRecordEPvS0_
 0005:00000CFC       System.$pdata$_ZN6System15_LStrFromPWCharERNS_11AnsiStringTILt0EEEPwt
 0005:00000D68       System.$pdata$_ZN6System15_UStrFromPWCharERNS_13UnicodeStringEPw
 0005:00000D98       System.$pdata$_ZN6System15_UStrFromStringERNS_13UnicodeStringERKNS_11SmallStringILh255EEE
 0005:00000D74       System.$pdata$_ZN6System15_UStrFromWArrayERNS_13UnicodeStringEPwi
 0005:00000D2C       System.$pdata$_ZN6System16InternalUStrCatNERNS_13UnicodeStringEiPS0_
 0005:00000660       System.$pdata$_ZN6System16InvokeImplGetterEPNS_7TObjectEy
 0005:00000048       System.$pdata$_ZN6System16LockMediumBlocksEv
 0005:00000AF8       System.$pdata$_ZN6System16MakeErrorMessageEv
 0005:00000438       System.$pdata$_ZN6System16TryOpenForOutputERNS_8TTextRecE
 0005:00001134       System.$pdata$_ZN6System16UnregisterModuleEPNS_10TLibModuleE
 0005:00001374       System.$pdata$_ZN6System16_CleanupInstanceEPv
 0005:00000B04       System.$pdata$_ZN6System16_ExitDllLongJumpERNS_17__TExitDllJumpBufEi
 0005:00000E34       System.$pdata$_ZN6System16_InitializeArrayEPvS0_y
 0005:00000EF4       System.$pdata$_ZN6System17DynArraySetLengthERPvS0_xPx
 0005:00001050       System.$pdata$_ZN6System17GetLocaleOverrideENS_13UnicodeStringE
 0005:00000204       System.$pdata$_ZN6System17ReleaseRaiseFrameEPNS_11TRaiseFrameE
 0005:00001068       System.$pdata$_ZN6System17SetLocaleOverrideENS_13UnicodeStringE
 0005:00001368       System.$pdata$_ZN6System17UnregisterWeakRefEPvPNS_7TObjectE
 0005:00000B1C       System.$pdata$_ZN6System17WriteErrorMessageEv
 0005:00000A38       System.$pdata$_ZN6System17_DestroyExceptionEP18TExceptionPointersy
 0005:00000E28       System.$pdata$_ZN6System17_InitializeRecordEPvS0_
 0005:00000C0C       System.$pdata$_ZN6System17_LStrFromPCharLenERNS_11AnsiStringTILt0EEEPcit
 0005:00000B58       System.$pdata$_ZN6System17_NewUnicodeStringEi
 0005:00000C24       System.$pdata$_ZN6System17_UStrFromPCharLenERNS_13UnicodeStringEPci
 0005:000002F4       System.$pdata$_ZN6System17__FlushMBCSBufferERNS_8TTextRecE
 0005:00000090       System.$pdata$_ZN6System18AllocateLargeBlockEy
 0005:000001F8       System.$pdata$_ZN6System18AllocateRaiseFrameEv
 0005:00000F78       System.$pdata$_ZN6System18FinalizeLocaleDateEv
 0005:00000EDC       System.$pdata$_ZN6System18InternalHasWeakRefEPNS_9TTypeInfoE
 0005:000010D4       System.$pdata$_ZN6System18LoadResourceModuleEPwb
 0005:00001350       System.$pdata$_ZN6System18MarkWeakReferencedEPNS_7TObjectE
 0005:00000114       System.$pdata$_ZN6System18NativeUIntToStrBufEyPc
 0005:00001110       System.$pdata$_ZN6System18NotifyModuleUnloadEy
 0005:0000018C       System.$pdata$_ZN6System18ScanForMemoryLeaksEv
 0005:000007BC       System.$pdata$_ZN6System18_AfterConstructionEPNS_7TObjectE
 0005:000007D4       System.$pdata$_ZN6System18_BeforeDestructionEPNS_7TObjectEa
 0005:00000EC4       System.$pdata$_ZN6System18_DispCallByIDErrorEPvNS_15DelphiInterfaceI9IDispatchEEPNS_9TDispDescES0_
 0005:00000F24       System.$pdata$_ZN6System18_DynArrayCopyRangeERPvS0_S0_xx
 0005:00000F0C       System.$pdata$_ZN6System18_DynArraySetLengthERPvS0_x
 0005:00000C30       System.$pdata$_ZN6System18_LStrFromPWCharLenERNS_11AnsiStringTILt0EEEPwit
 0005:00000BF4       System.$pdata$_ZN6System18_UStrFromPWCharLenERNS_13UnicodeStringEPwi
 0005:00000C00       System.$pdata$_ZN6System18_WStrFromPWCharLenERNS_10WideStringEPwi
 0005:000010F8       System.$pdata$_ZN6System19AddModuleUnloadProcEPFvyE
 0005:000010EC       System.$pdata$_ZN6System19EnumResourceModulesEPFbyPvES0_
 0005:000009CC       System.$pdata$_ZN6System19NotifyExceptFinallyEy
 0005:000013C8       System.$pdata$_ZN6System19UTF8ToUnicodeStringERKNS_11SmallStringILh255EEE
 0005:00000B4C       System.$pdata$_ZN6System19_UnhandledExceptionEv
 0005:00000120       System.$pdata$_ZN6System20AppendStringToBufferEPKcS1_j
 0005:00000F6C       System.$pdata$_ZN6System20InitializeLocaleDataEv
 0005:000000A8       System.$pdata$_ZN6System20ReallocateLargeBlockEPvy
 0005:0000141C       System.$pdata$_ZN6System20SetUTF8CompareLocaleEv
 0005:000001BC       System.$pdata$_ZN6System21FinalizeMemoryManagerEv
 0005:00000F60       System.$pdata$_ZN6System21FindResourceHInstanceEy
 0005:000010BC       System.$pdata$_ZN6System21GetResourceModuleNameENS_13UnicodeStringES0_
 0005:00000CA8       System.$pdata$_ZN6System21InternalUniqueStringAERNS_11AnsiStringTILt0EEE
 0005:00000C9C       System.$pdata$_ZN6System21InternalUniqueStringUERNS_13UnicodeStringE
 0005:00000054       System.$pdata$_ZN6System21RemoveMediumFreeBlockEPNS_16TMediumFreeBlockE
 0005:000002B8       System.$pdata$_ZN6System21SetMXCSRExceptionFlagEj
 0005:00000AC8       System.$pdata$_ZN6System21_InitResStringImportsEPv
 0005:00000228       System.$pdata$_ZN6System22AcquireExceptionObjectEv
 0005:000013F8       System.$pdata$_ZN6System22LocaleCharsFromUnicodeEjjPwiPciS1_Pi
 0005:00001104       System.$pdata$_ZN6System22RemoveModuleUnloadProcEPFvyE
 0005:00001404       System.$pdata$_ZN6System22UnicodeFromLocaleCharsEjjPciPwi
 0005:00000540       System.$pdata$_ZN6System22_InitializeControlWordEv
 0005:0000012C       System.$pdata$_ZN6System23AppendClassNameToBufferEPNS_10TMetaClassEPc
 0005:00000F54       System.$pdata$_ZN6System23DelayLoadResourceModuleEPNS_10TLibModuleE
 0005:000001A4       System.$pdata$_ZN6System23InitializeMemoryManagerEv
 0005:000013BC       System.$pdata$_ZN6System23UTF8EncodeToShortStringENS_13UnicodeStringE
 0005:00000768       System.$pdata$_ZN6System23UTF8ShortStringToStringERKNS_11SmallStringILh255EEE
 0005:000009FC       System.$pdata$_ZN6System23_DelphiExceptionHandlerEPNS_16TExceptionRecordEyPvS2_
 0005:000009F0       System.$pdata$_ZN6System24FindOnExceptionDescEntryEPNS_18TDispatcherContextEPvPNS_8TExcDescE
 0005:00000060       System.$pdata$_ZN6System24InsertMediumBlockIntoBinEPNS_16TMediumFreeBlockEj
 0005:00000C18       System.$pdata$_ZN6System24InternalUStrFromPCharLenERNS_13UnicodeStringEPcii
 0005:0000099C       System.$pdata$_ZN6System24NotifyNonDelphiExceptionEPvPNS_8TContextE
 0005:00000198       System.$pdata$_ZN6System25BuildBlockTypeLookupTableEv
 0005:000000FC       System.$pdata$_ZN6System25GetFirstMediumBlockInPoolEPNS_22TMediumBlockPoolHeaderE
 0005:0000102C       System.$pdata$_ZN6System25InternalGetLocaleOverrideENS_13UnicodeStringE
 0005:00000AEC       System.$pdata$_ZN6System25_FinalizeResStringImportsEPv
 0005:0000015C       System.$pdata$_ZN6System27LockExpectedMemoryLeaksListEv
 0005:00000168       System.$pdata$_ZN6System29SysRegisterExpectedMemoryLeakEPv
 0005:00000108       System.$pdata$_ZN6System31GetFirstAndLastSmallBlockInPoolEPNS_21TSmallBlockPoolHeaderERPvS3_
 0005:00000174       System.$pdata$_ZN6System31SysUnregisterExpectedMemoryLeakEPv
 0005:00000078       System.$pdata$_ZN6System32AllocNewSequentialFeedMediumPoolEj
 0005:0000006C       System.$pdata$_ZN6System32BinMediumSequentialFeedRemainderEv
 0005:00000E04       System.$pdata$_ZN6System3PosENS_13UnicodeStringES0_i
 0005:00000DF8       System.$pdata$_ZN6System3PosERKNS_11SmallStringILh255EEES3_i
 0005:0000027C       System.$pdata$_ZN6System4MoveEPKvPvx
 0005:000002E8       System.$pdata$_ZN6System4_AbsEe
 0005:0000024C       System.$pdata$_ZN6System5ErrorENS_13TRuntimeErrorE
 0005:00000384       System.$pdata$_ZN6System5FlushERNS_8TextfileE
 0005:0000000C       System.$pdata$_ZN6System5Move8EPKvPvx
 0005:00001428       System.$pdata$_ZN6System5TGUID12_op_EqualityERK5_GUIDS3_
 0005:00001434       System.$pdata$_ZN6System5TGUID14_op_InequalityERK5_GUIDS3_
 0005:00001458       System.$pdata$_ZN6System5TGUID5EmptyEv
 0005:0000144C       System.$pdata$_ZN6System5TGUID6CreateEPKhijb
 0005:00001440       System.$pdata$_ZN6System5TGUID6CreateEPKvb
 0005:00000CE4       System.$pdata$_ZN6System5_CopyERKNS_11SmallStringILh255EEEii
 0005:00000B34       System.$pdata$_ZN6System5_HaltEi
 0005:00000018       System.$pdata$_ZN6System6Move24EPKvPvx
 0005:00000024       System.$pdata$_ZN6System6Move40EPKvPvx
 0005:00000030       System.$pdata$_ZN6System6Move56EPKvPvx
 0005:00000324       System.$pdata$_ZN6System6TextInERNS_8TTextRecE
 0005:0000039C       System.$pdata$_ZN6System6_CloseERNS_8TTextRecE
 0005:00000390       System.$pdata$_ZN6System6_FlushERNS_8TTextRecE
 0005:00000B28       System.$pdata$_ZN6System6_Halt0Ev
 0005:000002D0       System.$pdata$_ZN6System6_RoundEe
 0005:000002DC       System.$pdata$_ZN6System6_TruncEe
 0005:00000240       System.$pdata$_ZN6System7ErrorAtEhPv
 0005:00000B10       System.$pdata$_ZN6System7ExitDllEPNS_12TInitContextE
 0005:00000510       System.$pdata$_ZN6System7Power10Eei
 0005:0000033C       System.$pdata$_ZN6System7TextOutERNS_8TTextRecE
 0005:00000780       System.$pdata$_ZN6System7TObject10MethodNameEPv
 0005:00000594       System.$pdata$_ZN6System7TObject11ClassNameIsENS_13UnicodeStringE
 0005:000005AC       System.$pdata$_ZN6System7TObject11ClassParentEv
 0005:00000678       System.$pdata$_ZN6System7TObject11GetHashCodeEv
 0005:000005C4       System.$pdata$_ZN6System7TObject11NewInstanceEv
 0005:00000798       System.$pdata$_ZN6System7TObject12FieldAddressENS_13UnicodeStringE
 0005:0000078C       System.$pdata$_ZN6System7TObject12FieldAddressERKNS_11SmallStringILh255EEE
 0005:000005D0       System.$pdata$_ZN6System7TObject12FreeInstanceEv
 0005:00000684       System.$pdata$_ZN6System7TObject12GetInterfaceERK5_GUIDPv
 0005:000006F0       System.$pdata$_ZN6System7TObject12InheritsFromEPNS_10TMetaClassE
 0005:00000648       System.$pdata$_ZN6System7TObject12InitInstanceEPv
 0005:000005B8       System.$pdata$_ZN6System7TObject12InstanceSizeEv
 0005:00000774       System.$pdata$_ZN6System7TObject13MethodAddressENS_13UnicodeStringE
 0005:0000075C       System.$pdata$_ZN6System7TObject13MethodAddressERKNS_11SmallStringILh255EEE
 0005:00000720       System.$pdata$_ZN6System7TObject14DefaultHandlerEPv
 0005:00000654       System.$pdata$_ZN6System7TObject15CleanupInstanceEv
 0005:0000072C       System.$pdata$_ZN6System7TObject17AfterConstructionEv
 0005:00000738       System.$pdata$_ZN6System7TObject17BeforeDestructionEv
 0005:0000069C       System.$pdata$_ZN6System7TObject17GetInterfaceEntryERK5_GUID
 0005:0000063C       System.$pdata$_ZN6System7TObject17GetInterfaceTableEv
 0005:00000708       System.$pdata$_ZN6System7TObject17SafeCallExceptionEPS0_Pv
 0005:0000057C       System.$pdata$_ZN6System7TObject18QualifiedClassNameEv
 0005:00000624       System.$pdata$_ZN6System7TObject4FreeEv
 0005:0000066C       System.$pdata$_ZN6System7TObject6EqualsEPS0_
 0005:00000744       System.$pdata$_ZN6System7TObject8DispatchEPv
 0005:00000714       System.$pdata$_ZN6System7TObject8ToStringEv
 0005:000006A8       System.$pdata$_ZN6System7TObject8UnitNameEv
 0005:000006FC       System.$pdata$_ZN6System7TObject9ClassInfoEv
 0005:00000570       System.$pdata$_ZN6System7TObject9ClassNameEv
 0005:00000564       System.$pdata$_ZN6System7TObject9ClassTypeEv
 0005:000005DC       System.$pdata$_ZN6System7TObject9CPP_ABI_1Ev
 0005:000005E8       System.$pdata$_ZN6System7TObject9CPP_ABI_2Ev
 0005:000005F4       System.$pdata$_ZN6System7TObject9CPP_ABI_3Ev
 0005:00000630       System.$pdata$_ZN6System7TObject9DisposeOfEv
 0005:000006B4       System.$pdata$_ZN6System7TObject9UnitScopeEv
 0005:00000600       System.$pdata$_ZN6System7TObjectC3Ev
 0005:00000618       System.$pdata$_ZN6System7TObjectD0Ev
 0005:000001D4       System.$pdata$_ZN6System7_GetMemEx
 0005:00000420       System.$pdata$_ZN6System7_ReadLnERNS_8TTextRecE
 0005:00000E4C       System.$pdata$_ZN6System7_VarClrER8TVarData
 0005:000001C8       System.$pdata$_ZN6System8AllocMemEx
 0005:00000528       System.$pdata$_ZN6System8GetCPUIDEjj
 0005:000002C4       System.$pdata$_ZN6System8GetMXCSREv
 0005:00000270       System.$pdata$_ZN6System8IOResultEv
 0005:00000300       System.$pdata$_ZN6System8OpenTextERNS_8TTextRecEt
 0005:0000036C       System.$pdata$_ZN6System8TextOpenERNS_8TTextRecE
 0005:000008D0       System.$pdata$_ZN6System8TMonitor10GetMonitorEPNS_7TObjectE
 0005:0000090C       System.$pdata$_ZN6System8TMonitor11QueueWaiterERNS0_14TWaitingThreadE
 0005:00000924       System.$pdata$_ZN6System8TMonitor12RemoveWaiterERNS0_14TWaitingThreadE
 0005:0000093C       System.$pdata$_ZN6System8TMonitor12SetSpinCountEPNS_7TObjectEi
 0005:0000087C       System.$pdata$_ZN6System8TMonitor13DequeueWaiterEv
 0005:000008C4       System.$pdata$_ZN6System8TMonitor15GetFieldAddressEPNS_7TObjectE
 0005:00000810       System.$pdata$_ZN6System8TMonitor16GetCacheLineSizeEv
 0005:00000834       System.$pdata$_ZN6System8TMonitor17CheckOwningThreadEv
 0005:00000828       System.$pdata$_ZN6System8TMonitor19CheckMonitorSupportEv
 0005:000008AC       System.$pdata$_ZN6System8TMonitor4ExitEPNS_7TObjectE
 0005:000008A0       System.$pdata$_ZN6System8TMonitor4ExitEv
 0005:00000804       System.$pdata$_ZN6System8TMonitor4SpinEi
 0005:00000978       System.$pdata$_ZN6System8TMonitor4WaitEPNS_7TObjectEj
 0005:00000984       System.$pdata$_ZN6System8TMonitor4WaitEPNS_7TObjectES2_j
 0005:00000960       System.$pdata$_ZN6System8TMonitor4WaitEPS0_j
 0005:00000894       System.$pdata$_ZN6System8TMonitor5EnterEj
 0005:00000864       System.$pdata$_ZN6System8TMonitor5EnterEPNS_7TObjectE
 0005:00000870       System.$pdata$_ZN6System8TMonitor5EnterEPNS_7TObjectEj
 0005:000008E8       System.$pdata$_ZN6System8TMonitor5PulseEPNS_7TObjectE
 0005:000008DC       System.$pdata$_ZN6System8TMonitor5PulseEv
 0005:00000840       System.$pdata$_ZN6System8TMonitor6CreateEv
 0005:0000084C       System.$pdata$_ZN6System8TMonitor7DestroyEPNS_7TObjectE
 0005:00000858       System.$pdata$_ZN6System8TMonitor7DestroyEv
 0005:000008B8       System.$pdata$_ZN6System8TMonitor8GetEventEv
 0005:00000900       System.$pdata$_ZN6System8TMonitor8PulseAllEPNS_7TObjectE
 0005:000008F4       System.$pdata$_ZN6System8TMonitor8PulseAllEv
 0005:00000948       System.$pdata$_ZN6System8TMonitor8TryEnterEPNS_7TObjectE
 0005:00000954       System.$pdata$_ZN6System8TMonitor8TryEnterEv
 0005:000007F8       System.$pdata$_ZN6System8TMonitor9TSpinLock4ExitEv
 0005:000007EC       System.$pdata$_ZN6System8TMonitor9TSpinLock5EnterEv
 0005:000007E0       System.$pdata$_ZN6System8TMonitor9TSpinWait9SpinCycleEv
 0005:000006CC       System.$pdata$_ZN6System8_AsClassEPNS_7TObjectEPNS_10TMetaClassE
 0005:00000CD8       System.$pdata$_ZN6System8_AStrCmpEPKcS1_x
 0005:00000EAC       System.$pdata$_ZN6System8_DisposeEPvS0_
 0005:0000054C       System.$pdata$_ZN6System8_FpuInitEv
 0005:000001E0       System.$pdata$_ZN6System8_FreeMemEPv
 0005:00000558       System.$pdata$_ZN6System8_IntOverEv
 0005:000006C0       System.$pdata$_ZN6System8_IsClassEPNS_7TObjectEPNS_10TMetaClassE
 0005:00000C60       System.$pdata$_ZN6System8_LStrAsgERNS_11AnsiStringTILt0EEES1_
 0005:00000B88       System.$pdata$_ZN6System8_LStrClrEPv
 0005:00000C78       System.$pdata$_ZN6System8_LStrLenENS_11AnsiStringTILt65535EEE
 0005:00000C3C       System.$pdata$_ZN6System8_UStrAsgERNS_13UnicodeStringES0_
 0005:00000DB0       System.$pdata$_ZN6System8_UStrCatERNS_13UnicodeStringES0_
 0005:00000B7C       System.$pdata$_ZN6System8_UStrClrEPv
 0005:00000DD4       System.$pdata$_ZN6System8_UStrCmpENS_13UnicodeStringES0_
 0005:00000C6C       System.$pdata$_ZN6System8_UStrLenENS_13UnicodeStringE
 0005:0000042C       System.$pdata$_ZN6System8_ValLongENS_13UnicodeStringERi
 0005:00000E70       System.$pdata$_ZN6System8_VarCopyER8TVarDataRKS0_
 0005:00000504       System.$pdata$_ZN6System8_WriteLnERNS_8TTextRecE
 0005:00000C54       System.$pdata$_ZN6System8_WStrAsgERNS_10WideStringES0_
 0005:00000B94       System.$pdata$_ZN6System8_WStrClrEPv
 0005:00000258       System.$pdata$_ZN6System8__IOTestEv
 0005:000002AC       System.$pdata$_ZN6System9Get8087CWEv
 0005:00000A68       System.$pdata$_ZN6System9InitUnitsEv
 0005:00000EA0       System.$pdata$_ZN6System9MoveArrayEPvS0_S0_x
 0005:0000003C       System.$pdata$_ZN6System9MoveX16LPEPKvPvx
 0005:000000B4       System.$pdata$_ZN6System9SysGetMemEx
 0005:00000354       System.$pdata$_ZN6System9TextCloseERNS_8TTextRecE
 0005:000011C4       System.$pdata$_ZN6System9TInstItem11RegisterRefERNS_11StaticArrayINS_12DynamicArrayIPPvEELi31EEES3_
 0005:00001188       System.$pdata$_ZN6System9TInstItem13ClearWeakRefsEv
 0005:000011DC       System.$pdata$_ZN6System9TInstItem13UnregisterRefERNS_11StaticArrayINS_12DynamicArrayIPPvEELi31EEES3_
 0005:000011F4       System.$pdata$_ZN6System9TInstItem15RegisterWeakRefEPv
 0005:00001200       System.$pdata$_ZN6System9TInstItem17UnregisterWeakRefEPv
 0005:0000120C       System.$pdata$_ZN6System9TInstItem21RegisterWeakMethodRefEPv
 0005:00001218       System.$pdata$_ZN6System9TInstItem23UnregisterWeakMethodRefEPv
 0005:000011B8       System.$pdata$_ZN6System9TInstItem4FreeEv
 0005:00001194       System.$pdata$_ZN6System9TInstItem4LockEv
 0005:0000117C       System.$pdata$_ZN6System9TInstItem6CreateEv
 0005:000011A0       System.$pdata$_ZN6System9TInstItem6UnlockEv
 0005:000011AC       System.$pdata$_ZN6System9TInstItem7DestroyEv
 0005:00000B70       System.$pdata$_ZN6System9WStrErrorEv
 0005:000003A8       System.$pdata$_ZN6System9_FillCharEPvxc
 0005:00000E64       System.$pdata$_ZN6System9_FinalizeEPvS0_
 0005:0000051C       System.$pdata$_ZN6System9_GetCPUIDEjj
 0005:00001164       System.$pdata$_ZN6System9_IntfCastERNS_15DelphiInterfaceINS_10IInterfaceEEES2_RK5_GUID
 0005:00001158       System.$pdata$_ZN6System9_IntfCopyERNS_15DelphiInterfaceINS_10IInterfaceEEES2_
 0005:00000C84       System.$pdata$_ZN6System9_PCharLenEPc
 0005:000003C0       System.$pdata$_ZN6System9_ReadByteERNS_8TTextRecERb
 0005:000003CC       System.$pdata$_ZN6System9_ReadWordERNS_8TTextRecERb
 0005:00000B40       System.$pdata$_ZN6System9_RunErrorEh
 0005:00000A80       System.$pdata$_ZN6System9_StartExeEPNS_16PackageInfoTableEPNS_10TLibModuleE
 0005:00000DBC       System.$pdata$_ZN6System9_UStrCat3ERNS_13UnicodeStringES0_S0_
 0005:00000DC8       System.$pdata$_ZN6System9_UStrCatNERNS_13UnicodeStringEi
 0005:00000DEC       System.$pdata$_ZN6System9_UStrCopyENS_13UnicodeStringEii
 0005:00000C48       System.$pdata$_ZN6System9_UStrLAsgERNS_13UnicodeStringES0_
 0005:00000468       System.$pdata$_ZZN6System11_Write0CharERNS_8TTextRecEcE26WriteUnicodeFromMBCSBufferPv
 0005:00000138       System.$pdata$_ZZN6System14GetObjectClassEPvE17IsValidVMTAddressS0_S0_
 0005:00000144       System.$pdata$_ZZN6System14GetObjectClassEPvE20InternalIsValidClassS0_S0_i
 0005:00000F90       System.$pdata$_ZZN6System14GetUILanguagesEtE13LastHyphenPosPvNS_13UnicodeStringE
 0005:00000FE4       System.$pdata$_ZZN6System14GetUILanguagesEtE17ThreadUILanguagesPvRi
 0005:00000FA8       System.$pdata$_ZZN6System14GetUILanguagesEtE23ConvertResToUILanguagesPvPc
 0005:00000FF0       System.$pdata$_ZZN6System14GetUILanguagesEtE24GetPreferredLangForNewOSPvt
 0005:00000FC0       System.$pdata$_ZZN6System14GetUILanguagesEtE24GetPreferredLangForOldOSPvt
 0005:00000FD8       System.$pdata$_ZZN6System14GetUILanguagesEtE26CheckDifferentLanguageListPvPwS1_i
 0005:00000180       System.$pdata$_ZZN6System18ScanForMemoryLeaksEvE27CheckSmallBlockPoolForLeaksPvPNS_21TSmallBlockPoolHeaderE
 0005:0000108C       System.$pdata$_ZZN6System21GetResourceModuleNameENS_13UnicodeStringES0_E16LoadLanguageListPvS0_S0_
 0005:00001074       System.$pdata$_ZZN6System21GetResourceModuleNameENS_13UnicodeStringES0_E16ResouceDLLExistsPvS0_
 0005:000010A4       System.$pdata$_ZZN6System21GetResourceModuleNameENS_13UnicodeStringES0_E18Load3LettersModulePvS0_
 0005:00001020       System.$pdata$_ZZN6System25InternalGetLocaleOverrideENS_13UnicodeStringEE10ToLongPathPvPwi
 0005:00001014       System.$pdata$_ZZN6System25InternalGetLocaleOverrideENS_13UnicodeStringEE6FindBSPvPw
 0001:000024C0       System.$thunk_GetLogicalProcessorInformation
 0001:00002390       System.$thunk_MessageBoxA
 0002:00000E68       System.$unwind$_ZN6System10ExceptAddrEv
 0002:000000B0       System.$unwind$_ZN6System10GetCmdShowEv
 0002:00001D24       System.$unwind$_ZN6System10MoveRecordEPvS0_S0_
 0002:00000E78       System.$unwind$_ZN6System10RunErrorAtEiPv
 0002:00002250       System.$unwind$_ZN6System10StringCopyEPwiS0_
 0002:00000D00       System.$unwind$_ZN6System10SysFreeMemEPv
 0002:00001D34       System.$unwind$_ZN6System10_CopyArrayEPvS0_S0_y
 0002:00002564       System.$unwind$_ZN6System10_IntfClearERNS_15DelphiInterfaceINS_10IInterfaceEEE
 0002:00001B2C       System.$unwind$_ZN6System10_PWCharLenEPw
 0002:00000F0C       System.$unwind$_ZN6System10_ResetTextERNS_8TTextRecE
 0002:00001C64       System.$unwind$_ZN6System10_UStrEqualENS_13UnicodeStringES0_
 0002:00000F24       System.$unwind$_ZN6System11FileNOPProcEPv
 0002:000028F8       System.$unwind$_ZN6System11GetCPUCountEv
 0002:00001C88       System.$unwind$_ZN6System11SetCodePageERNS_11AnsiStringTILt65535EEEtb
 0002:00000EA4       System.$unwind$_ZN6System11SetInOutResEi
 0002:00000D30       System.$unwind$_ZN6System11ShowMessageEPcS0_
 0002:00000D24       System.$unwind$_ZN6System11SysAllocMemEx
 0002:00002680       System.$unwind$_ZN6System11TInstBucket10InitializeEv
 0002:00002650       System.$unwind$_ZN6System11TInstBucket11AddInstItemEiPNS_9TInstItemE
 0002:00002664       System.$unwind$_ZN6System11TInstBucket12FindInstItemEPvRi
 0002:00002690       System.$unwind$_ZN6System11TInstBucket14RemoveInstItemEPv
 0002:00002688       System.$unwind$_ZN6System11TInstBucket4LockEv
 0002:000026A0       System.$unwind$_ZN6System11TInstBucket6UnlockEv
 0002:00002674       System.$unwind$_ZN6System11TInstBucket8FinalizeEv
 0002:000014E0       System.$unwind$_ZN6System11UTF8CompareERKNS_11SmallStringILh255EEES3_
 0002:00001D14       System.$unwind$_ZN6System11_CopyRecordEPvS0_S0_
 0002:00001840       System.$unwind$_ZN6System11_DoneExceptEv
 0002:00002590       System.$unwind$_ZN6System11_IntfAddRefENS_15DelphiInterfaceINS_10IInterfaceEEE
 0002:00001824       System.$unwind$_ZN6System11_RaiseAgainEv
 0002:00000E18       System.$unwind$_ZN6System11_ReallocMemERPvx
 0002:00000F14       System.$unwind$_ZN6System11_RewritTextERNS_8TTextRecE
 0002:00001A6C       System.$unwind$_ZN6System11_UStrAddRefEPv
 0002:000011EC       System.$unwind$_ZN6System11_Write0CharERNS_8TTextRecEc
 0002:0000117C       System.$unwind$_ZN6System11_WriteBytesERNS_8TTextRecEPKvi
 0002:00000E60       System.$unwind$_ZN6System12ExceptObjectEv
 0002:0000292C       System.$unwind$_ZN6System12FinalizationEv
 0002:00000EC4       System.$unwind$_ZN6System12FRaiseExceptEjb
 0002:00001790       System.$unwind$_ZN6System12NotifyExceptEy
 0002:000026C8       System.$unwind$_ZN6System12TInstHashMap10InitializeEv
 0002:000026B0       System.$unwind$_ZN6System12TInstHashMap11NewInstItemEPv
 0002:000026B8       System.$unwind$_ZN6System12TInstHashMap11PopInstItemEv
 0002:000026A8       System.$unwind$_ZN6System12TInstHashMap12FreeInstItemEPNS_9TInstItemE
 0002:000027E8       System.$unwind$_ZN6System12TInstHashMap12IsRegisteredEPv
 0002:00002728       System.$unwind$_ZN6System12TInstHashMap15RegisterWeakRefEPvS1_
 0002:00002758       System.$unwind$_ZN6System12TInstHashMap17UnregisterWeakRefEPvS1_
 0002:00002788       System.$unwind$_ZN6System12TInstHashMap21RegisterWeakMethodRefEPvS1_
 0002:000027B8       System.$unwind$_ZN6System12TInstHashMap23UnregisterWeakMethodRefEPvS1_
 0002:000026F8       System.$unwind$_ZN6System12TInstHashMap7DestroyEPv
 0002:000026BC       System.$unwind$_ZN6System12TInstHashMap8FinalizeEv
 0002:00001B58       System.$unwind$_ZN6System12UniqueStringERNS_13UnicodeStringE
 0002:000028D0       System.$unwind$_ZN6System12UTF8ToStringERKNS_11SmallStringILh255EEE
 0002:00001544       System.$unwind$_ZN6System12_ClassCreateEPva
 0002:00001E00       System.$unwind$_ZN6System12_DynArrayAsgERPvS0_S0_
 0002:000010E8       System.$unwind$_ZN6System12_GetAnsiCharERNS_8TTextRecERbt
 0002:0000111C       System.$unwind$_ZN6System12_GetWideCharERNS_8TTextRecERb
 0002:0000199C       System.$unwind$_ZN6System12_InitImportsEPv
 0002:000014A0       System.$unwind$_ZN6System12_IntfAsClassENS_15DelphiInterfaceINS_10IInterfaceEEEPNS_10TMetaClassE
 0002:00001B88       System.$unwind$_ZN6System12_LStrToPCharENS_11AnsiStringTILt0EEE
 0002:00001818       System.$unwind$_ZN6System12_RaiseExceptEPNS_7TObjectE
 0002:0000118C       System.$unwind$_ZN6System12_WriteSpacesERNS_8TTextRecEi
 0002:00001A78       System.$unwind$_ZN6System13CharFromWCharEPciPKwi
 0002:00001A70       System.$unwind$_ZN6System13CharFromWCharEPciPKwii
 0002:00001D5C       System.$unwind$_ZN6System13FinalizeArrayEPvS0_y
 0002:00001858       System.$unwind$_ZN6System13FinalizeUnitsEv
 0002:00000DF0       System.$unwind$_ZN6System13FreeAllMemoryEv
 0002:000014AC       System.$unwind$_ZN6System13GetDynaMethodEPNS_10TMetaClassEs
 0002:00000F34       System.$unwind$_ZN6System13InternalCloseEy
 0002:00000F5C       System.$unwind$_ZN6System13InternalFlushERNS_8TTextRecEPFiS1_E
 0002:000028D8       System.$unwind$_ZN6System13LoadResStringEPNS_13TResStringRecE
 0002:0000177C       System.$unwind$_ZN6System13NotifyReRaiseEPNS_7TObjectEPv
 0002:00001D84       System.$unwind$_ZN6System13SysHasWeakRefEPKv
 0002:00000D10       System.$unwind$_ZN6System13SysReallocMemEPvx
 0002:0000287C       System.$unwind$_ZN6System13UnicodeToUtf8EPcjPwj
 0002:00002888       System.$unwind$_ZN6System13Utf8ToUnicodeEPwjPcj
 0002:00001A80       System.$unwind$_ZN6System13WCharFromCharEPwiPKcii
 0002:0000154C       System.$unwind$_ZN6System13_ClassDestroyEPNS_7TObjectE
 0002:00001DDC       System.$unwind$_ZN6System13_DynArrayCopyERPvS0_S0_
 0002:0000284C       System.$unwind$_ZN6System13_IntfWeakCopyERNS_15DelphiInterfaceINS_10IInterfaceEEES2_
 0002:00001A50       System.$unwind$_ZN6System13_LStrArrayClrEPvi
 0002:00001BA4       System.$unwind$_ZN6System13_LStrFromUStrERNS_11AnsiStringTILt0EEENS_13UnicodeStringEt
 0002:00001118       System.$unwind$_ZN6System13_SkipAnsiCharERNS_8TTextRecE
 0002:00001150       System.$unwind$_ZN6System13_SkipWideCharERNS_8TTextRecE
 0002:00001A44       System.$unwind$_ZN6System13_UStrArrayClrEPvi
 0002:00001BFC       System.$unwind$_ZN6System13_UStrFromLStrERNS_13UnicodeStringENS_11AnsiStringTILt0EEE
 0002:00001BCC       System.$unwind$_ZN6System13_UStrToPWCharENS_13UnicodeStringE
 0002:00001200       System.$unwind$_ZN6System13_WriteCStringERNS_8TTextRecEPci
 0002:00001260       System.$unwind$_ZN6System13_WriteLStringERNS_8TTextRecENS_11AnsiStringTILt0EEEi
 0002:00001298       System.$unwind$_ZN6System13_WriteUStringERNS_8TTextRecENS_13UnicodeStringEi
 0002:00001A5C       System.$unwind$_ZN6System13_WStrArrayClrEPvi
 0002:00001C04       System.$unwind$_ZN6System13_WStrFromUStrERNS_10WideStringENS_13UnicodeStringE
 0002:00000ECC       System.$unwind$_ZN6System14FGetExceptMaskEj
 0002:00000CC8       System.$unwind$_ZN6System14FreeLargeBlockEPv
 0002:00000EB8       System.$unwind$_ZN6System14FSetExceptFlagEjj
 0002:00000D90       System.$unwind$_ZN6System14GetObjectClassEPv
 0002:00002310       System.$unwind$_ZN6System14GetUILanguagesEt
 0002:00002958       System.$unwind$_ZN6System14initializationEv
 0002:000018D8       System.$unwind$_ZN6System14LoadResStringAEPNS_13TResStringRecEt
 0002:00001938       System.$unwind$_ZN6System14LoadResStringUEPNS_13TResStringRecE
 0002:00001908       System.$unwind$_ZN6System14LoadResStringWEPNS_13TResStringRecE
 0002:00001798       System.$unwind$_ZN6System14NotifyOnExceptEy
 0002:00002534       System.$unwind$_ZN6System14RegisterModuleEPNS_10TLibModuleE
 0002:00001DF4       System.$unwind$_ZN6System14_DynArrayClearERPvS0_
 0002:00001CF4       System.$unwind$_ZN6System14_FinalizeArrayEPvS0_y
 0002:00002840       System.$unwind$_ZN6System14_IntfWeakClearERNS_15DelphiInterfaceINS_10IInterfaceEEE
 0002:00001B68       System.$unwind$_ZN6System14_LStrFromPCharERNS_11AnsiStringTILt0EEEPct
 0002:00001B90       System.$unwind$_ZN6System14_LStrSetLengthERNS_11AnsiStringTILt0EEEit
 0002:00001A10       System.$unwind$_ZN6System14_NewAnsiStringEit
 0002:00001808       System.$unwind$_ZN6System14_RaiseAtExceptEPNS_7TObjectEPv
 0002:00001B50       System.$unwind$_ZN6System14_UniqueStringAERNS_11AnsiStringTILt0EEE
 0002:00001B48       System.$unwind$_ZN6System14_UniqueStringUERNS_13UnicodeStringE
 0002:00001BDC       System.$unwind$_ZN6System14_UStrFromPCharERNS_13UnicodeStringEPc
 0002:00001BD4       System.$unwind$_ZN6System14_UStrFromWCharERNS_13UnicodeStringEw
 0002:00001C14       System.$unwind$_ZN6System14_UStrSetLengthERNS_13UnicodeStringEi
 0002:00001BBC       System.$unwind$_ZN6System14_WCharToStringEPNS_11SmallStringILh255EEEwi
 0002:000011F8       System.$unwind$_ZN6System14_Write0CStringERNS_8TTextRecEPc
 0002:00001230       System.$unwind$_ZN6System14_Write0LStringERNS_8TTextRecENS_11AnsiStringTILt0EEE
 0002:00001290       System.$unwind$_ZN6System14_Write0UStringERNS_8TTextRecENS_13UnicodeStringE
 0002:000012E8       System.$unwind$_ZN6System15InitializeCPUIDEv
 0002:00000CB0       System.$unwind$_ZN6System15LockLargeBlocksEv
 0002:00000D40       System.$unwind$_ZN6System15NextMediumBlockEPv
 0002:000017A0       System.$unwind$_ZN6System15NotifyAnyExceptEy
 0002:000017B0       System.$unwind$_ZN6System15NotifyTerminateEy
 0002:000017B8       System.$unwind$_ZN6System15NotifyUnhandledEPvS0_
 0002:00002824       System.$unwind$_ZN6System15RegisterWeakRefEPvPNS_7TObjectE
 0002:00000F44       System.$unwind$_ZN6System15TextOpenCleanupERNS_8TTextRecE
 0002:000010C8       System.$unwind$_ZN6System15TryOpenForInputERNS_8TTextRecE
 0002:00001E0C       System.$unwind$_ZN6System15_DynArrayAddRefEPv
 0002:00001D70       System.$unwind$_ZN6System15_DynArrayLengthEPKv
 0002:00001CDC       System.$unwind$_ZN6System15_FinalizeRecordEPvS0_
 0002:00001B70       System.$unwind$_ZN6System15_LStrFromPWCharERNS_11AnsiStringTILt0EEEPwt
 0002:00001BE8       System.$unwind$_ZN6System15_UStrFromPWCharERNS_13UnicodeStringEPw
 0002:00001C0C       System.$unwind$_ZN6System15_UStrFromStringERNS_13UnicodeStringERKNS_11SmallStringILh255EEE
 0002:00001BF4       System.$unwind$_ZN6System15_UStrFromWArrayERNS_13UnicodeStringEPwi
 0002:00001BAC       System.$unwind$_ZN6System16InternalUStrCatNERNS_13UnicodeStringEiPS0_
 0002:00001418       System.$unwind$_ZN6System16InvokeImplGetterEPNS_7TObjectEy
 0002:00000C8C       System.$unwind$_ZN6System16LockMediumBlocksEv
 0002:000019BC       System.$unwind$_ZN6System16MakeErrorMessageEv
 0002:00001174       System.$unwind$_ZN6System16TryOpenForOutputERNS_8TTextRecE
 0002:00002538       System.$unwind$_ZN6System16UnregisterModuleEPNS_10TLibModuleE
 0002:00002838       System.$unwind$_ZN6System16_CleanupInstanceEPv
 0002:000019C0       System.$unwind$_ZN6System16_ExitDllLongJumpERNS_17__TExitDllJumpBufEi
 0002:00001CCC       System.$unwind$_ZN6System16_InitializeArrayEPvS0_y
 0002:00001D90       System.$unwind$_ZN6System17DynArraySetLengthERPvS0_xPx
 0002:000023AC       System.$unwind$_ZN6System17GetLocaleOverrideENS_13UnicodeStringE
 0002:00000E54       System.$unwind$_ZN6System17ReleaseRaiseFrameEPNS_11TRaiseFrameE
 0002:000023DC       System.$unwind$_ZN6System17SetLocaleOverrideENS_13UnicodeStringE
 0002:00002830       System.$unwind$_ZN6System17UnregisterWeakRefEPvPNS_7TObjectE
 0002:000019D4       System.$unwind$_ZN6System17WriteErrorMessageEv
 0002:00001830       System.$unwind$_ZN6System17_DestroyExceptionEP18TExceptionPointersy
 0002:00001CC0       System.$unwind$_ZN6System17_InitializeRecordEPvS0_
 0002:00001AA4       System.$unwind$_ZN6System17_LStrFromPCharLenERNS_11AnsiStringTILt0EEEPcit
 0002:00001A08       System.$unwind$_ZN6System17_NewUnicodeStringEi
 0002:00001AC8       System.$unwind$_ZN6System17_UStrFromPCharLenERNS_13UnicodeStringEPci
 0002:00000EFC       System.$unwind$_ZN6System17__FlushMBCSBufferERNS_8TTextRecE
 0002:00000CB8       System.$unwind$_ZN6System18AllocateLargeBlockEy
 0002:00000E44       System.$unwind$_ZN6System18AllocateRaiseFrameEv
 0002:00002248       System.$unwind$_ZN6System18FinalizeLocaleDateEv
 0002:00001D74       System.$unwind$_ZN6System18InternalHasWeakRefEPNS_9TTypeInfoE
 0002:000024AC       System.$unwind$_ZN6System18LoadResourceModuleEPwb
 0002:00002818       System.$unwind$_ZN6System18MarkWeakReferencedEPNS_7TObjectE
 0002:00000D4C       System.$unwind$_ZN6System18NativeUIntToStrBufEyPc
 0002:000024F8       System.$unwind$_ZN6System18NotifyModuleUnloadEy
 0002:00000DCC       System.$unwind$_ZN6System18ScanForMemoryLeaksEv
 0002:00001554       System.$unwind$_ZN6System18_AfterConstructionEPNS_7TObjectE
 0002:00001590       System.$unwind$_ZN6System18_BeforeDestructionEPNS_7TObjectEa
 0002:00001D64       System.$unwind$_ZN6System18_DispCallByIDErrorEPvNS_15DelphiInterfaceI9IDispatchEEPNS_9TDispDescES0_
 0002:00001DE4       System.$unwind$_ZN6System18_DynArrayCopyRangeERPvS0_S0_xx
 0002:00001DD0       System.$unwind$_ZN6System18_DynArraySetLengthERPvS0_x
 0002:00001AD0       System.$unwind$_ZN6System18_LStrFromPWCharLenERNS_11AnsiStringTILt0EEEPwit
 0002:00001A88       System.$unwind$_ZN6System18_UStrFromPWCharLenERNS_13UnicodeStringEPwi
 0002:00001A98       System.$unwind$_ZN6System18_WStrFromPWCharLenERNS_10WideStringEPwi
 0002:000024E8       System.$unwind$_ZN6System19AddModuleUnloadProcEPFvyE
 0002:000024DC       System.$unwind$_ZN6System19EnumResourceModulesEPFbyPvES0_
 0002:000017A8       System.$unwind$_ZN6System19NotifyExceptFinallyEy
 0002:000028A0       System.$unwind$_ZN6System19UTF8ToUnicodeStringERKNS_11SmallStringILh255EEE
 0002:000019FC       System.$unwind$_ZN6System19_UnhandledExceptionEv
 0002:00000D5C       System.$unwind$_ZN6System20AppendStringToBufferEPKcS1_j
 0002:00002240       System.$unwind$_ZN6System20InitializeLocaleDataEv
 0002:00000CDC       System.$unwind$_ZN6System20ReallocateLargeBlockEPvy
 0002:00002900       System.$unwind$_ZN6System20SetUTF8CompareLocaleEv
 0002:00000DF8       System.$unwind$_ZN6System21FinalizeMemoryManagerEv
 0002:00001E20       System.$unwind$_ZN6System21FindResourceHInstanceEy
 0002:0000247C       System.$unwind$_ZN6System21GetResourceModuleNameENS_13UnicodeStringES0_
 0002:00001B3C       System.$unwind$_ZN6System21InternalUniqueStringAERNS_11AnsiStringTILt0EEE
 0002:00001B30       System.$unwind$_ZN6System21InternalUniqueStringUERNS_13UnicodeStringE
 0002:00000C94       System.$unwind$_ZN6System21RemoveMediumFreeBlockEPNS_16TMediumFreeBlockE
 0002:00000ED8       System.$unwind$_ZN6System21SetMXCSRExceptionFlagEj
 0002:00001968       System.$unwind$_ZN6System21_InitResStringImportsEPv
 0002:00000E70       System.$unwind$_ZN6System22AcquireExceptionObjectEv
 0002:000028E8       System.$unwind$_ZN6System22LocaleCharsFromUnicodeEjjPwiPciS1_Pi
 0002:000024F0       System.$unwind$_ZN6System22RemoveModuleUnloadProcEPFvyE
 0002:000028F0       System.$unwind$_ZN6System22UnicodeFromLocaleCharsEjjPciPwi
 0002:000012F8       System.$unwind$_ZN6System22_InitializeControlWordEv
 0002:00000D68       System.$unwind$_ZN6System23AppendClassNameToBufferEPNS_10TMetaClassEPc
 0002:00001E10       System.$unwind$_ZN6System23DelayLoadResourceModuleEPNS_10TLibModuleE
 0002:00000DE8       System.$unwind$_ZN6System23InitializeMemoryManagerEv
 0002:00002894       System.$unwind$_ZN6System23UTF8EncodeToShortStringENS_13UnicodeStringE
 0002:00001500       System.$unwind$_ZN6System23UTF8ShortStringToStringERKNS_11SmallStringILh255EEE
 0002:000017D4       System.$unwind$_ZN6System23_DelphiExceptionHandlerEPNS_16TExceptionRecordEyPvS2_
 0002:000017C4       System.$unwind$_ZN6System24FindOnExceptionDescEntryEPNS_18TDispatcherContextEPvPNS_8TExcDescE
 0002:00000C98       System.$unwind$_ZN6System24InsertMediumBlockIntoBinEPNS_16TMediumFreeBlockEj
 0002:00001AB4       System.$unwind$_ZN6System24InternalUStrFromPCharLenERNS_13UnicodeStringEPcii
 0002:00001784       System.$unwind$_ZN6System24NotifyNonDelphiExceptionEPvPNS_8TContextE
 0002:00000DE4       System.$unwind$_ZN6System25BuildBlockTypeLookupTableEv
 0002:00000D44       System.$unwind$_ZN6System25GetFirstMediumBlockInPoolEPNS_22TMediumBlockPoolHeaderE
 0002:00002360       System.$unwind$_ZN6System25InternalGetLocaleOverrideENS_13UnicodeStringE
 0002:000019A0       System.$unwind$_ZN6System25_FinalizeResStringImportsEPv
 0002:00000D9C       System.$unwind$_ZN6System27LockExpectedMemoryLeaksListEv
 0002:00000DA4       System.$unwind$_ZN6System29SysRegisterExpectedMemoryLeakEPv
 0002:00000D48       System.$unwind$_ZN6System31GetFirstAndLastSmallBlockInPoolEPNS_21TSmallBlockPoolHeaderERPvS3_
 0002:00000DAC       System.$unwind$_ZN6System31SysUnregisterExpectedMemoryLeakEPv
 0002:00000CA8       System.$unwind$_ZN6System32AllocNewSequentialFeedMediumPoolEj
 0002:00000C9C       System.$unwind$_ZN6System32BinMediumSequentialFeedRemainderEv
 0002:00001C7C       System.$unwind$_ZN6System3PosENS_13UnicodeStringES0_i
 0002:00001C74       System.$unwind$_ZN6System3PosERKNS_11SmallStringILh255EEES3_i
 0002:00000EB4       System.$unwind$_ZN6System4MoveEPKvPvx
 0002:00000EF8       System.$unwind$_ZN6System4_AbsEe
 0002:00000E8C       System.$unwind$_ZN6System5ErrorENS_13TRuntimeErrorE
 0002:00000F64       System.$unwind$_ZN6System5FlushERNS_8TextfileE
 0002:00000C78       System.$unwind$_ZN6System5Move8EPKvPvx
 0002:00002908       System.$unwind$_ZN6System5TGUID12_op_EqualityERK5_GUIDS3_
 0002:0000290C       System.$unwind$_ZN6System5TGUID14_op_InequalityERK5_GUIDS3_
 0002:00002924       System.$unwind$_ZN6System5TGUID5EmptyEv
 0002:0000291C       System.$unwind$_ZN6System5TGUID6CreateEPKhijb
 0002:00002914       System.$unwind$_ZN6System5TGUID6CreateEPKvb
 0002:00001B64       System.$unwind$_ZN6System5_CopyERKNS_11SmallStringILh255EEEii
 0002:000019E8       System.$unwind$_ZN6System5_HaltEi
 0002:00000C7C       System.$unwind$_ZN6System6Move24EPKvPvx
 0002:00000C80       System.$unwind$_ZN6System6Move40EPKvPvx
 0002:00000C84       System.$unwind$_ZN6System6Move56EPKvPvx
 0002:00000F1C       System.$unwind$_ZN6System6TextInERNS_8TTextRecE
 0002:000010B8       System.$unwind$_ZN6System6_CloseERNS_8TTextRecE
 0002:00000F6C       System.$unwind$_ZN6System6_FlushERNS_8TTextRecE
 0002:000019DC       System.$unwind$_ZN6System6_Halt0Ev
 0002:00000EF0       System.$unwind$_ZN6System6_RoundEe
 0002:00000EF4       System.$unwind$_ZN6System6_TruncEe
 0002:00000E80       System.$unwind$_ZN6System7ErrorAtEhPv
 0002:000019C4       System.$unwind$_ZN6System7ExitDllEPNS_12TInitContextE
 0002:000012D4       System.$unwind$_ZN6System7Power10Eei
 0002:00000F28       System.$unwind$_ZN6System7TextOutERNS_8TTextRecE
 0002:00001518       System.$unwind$_ZN6System7TObject10MethodNameEPv
 0002:0000134C       System.$unwind$_ZN6System7TObject11ClassNameIsENS_13UnicodeStringE
 0002:00001380       System.$unwind$_ZN6System7TObject11ClassParentEv
 0002:00001428       System.$unwind$_ZN6System7TObject11GetHashCodeEv
 0002:00001388       System.$unwind$_ZN6System7TObject11NewInstanceEv
 0002:00001534       System.$unwind$_ZN6System7TObject12FieldAddressENS_13UnicodeStringE
 0002:00001524       System.$unwind$_ZN6System7TObject12FieldAddressERKNS_11SmallStringILh255EEE
 0002:00001390       System.$unwind$_ZN6System7TObject12FreeInstanceEv
 0002:0000142C       System.$unwind$_ZN6System7TObject12GetInterfaceERK5_GUIDPv
 0002:000014B0       System.$unwind$_ZN6System7TObject12InheritsFromEPNS_10TMetaClassE
 0002:00001400       System.$unwind$_ZN6System7TObject12InitInstanceEPv
 0002:00001384       System.$unwind$_ZN6System7TObject12InstanceSizeEv
 0002:00001508       System.$unwind$_ZN6System7TObject13MethodAddressENS_13UnicodeStringE
 0002:000014F0       System.$unwind$_ZN6System7TObject13MethodAddressERKNS_11SmallStringILh255EEE
 0002:000014C4       System.$unwind$_ZN6System7TObject14DefaultHandlerEPv
 0002:0000140C       System.$unwind$_ZN6System7TObject15CleanupInstanceEv
 0002:000014C8       System.$unwind$_ZN6System7TObject17AfterConstructionEv
 0002:000014CC       System.$unwind$_ZN6System7TObject17BeforeDestructionEv
 0002:0000145C       System.$unwind$_ZN6System7TObject17GetInterfaceEntryERK5_GUID
 0002:000013FC       System.$unwind$_ZN6System7TObject17GetInterfaceTableEv
 0002:000014B8       System.$unwind$_ZN6System7TObject17SafeCallExceptionEPS0_Pv
 0002:0000131C       System.$unwind$_ZN6System7TObject18QualifiedClassNameEv
 0002:000013EC       System.$unwind$_ZN6System7TObject4FreeEv
 0002:00001424       System.$unwind$_ZN6System7TObject6EqualsEPS0_
 0002:000014D0       System.$unwind$_ZN6System7TObject8DispatchEPv
 0002:000014BC       System.$unwind$_ZN6System7TObject8ToStringEv
 0002:0000146C       System.$unwind$_ZN6System7TObject8UnitNameEv
 0002:000014B4       System.$unwind$_ZN6System7TObject9ClassInfoEv
 0002:00001314       System.$unwind$_ZN6System7TObject9ClassNameEv
 0002:00001310       System.$unwind$_ZN6System7TObject9ClassTypeEv
 0002:00001398       System.$unwind$_ZN6System7TObject9CPP_ABI_1Ev
 0002:0000139C       System.$unwind$_ZN6System7TObject9CPP_ABI_2Ev
 0002:000013A0       System.$unwind$_ZN6System7TObject9CPP_ABI_3Ev
 0002:000013F4       System.$unwind$_ZN6System7TObject9DisposeOfEv
 0002:0000147C       System.$unwind$_ZN6System7TObject9UnitScopeEv
 0002:000013A4       System.$unwind$_ZN6System7TObjectC3Ev
 0002:000013E0       System.$unwind$_ZN6System7TObjectD0Ev
 0002:00000E08       System.$unwind$_ZN6System7_GetMemEx
 0002:00001154       System.$unwind$_ZN6System7_ReadLnERNS_8TTextRecE
 0002:00001CEC       System.$unwind$_ZN6System7_VarClrER8TVarData
 0002:00000E00       System.$unwind$_ZN6System8AllocMemEx
 0002:000012E0       System.$unwind$_ZN6System8GetCPUIDEjj
 0002:00000EE4       System.$unwind$_ZN6System8GetMXCSREv
 0002:00000EAC       System.$unwind$_ZN6System8IOResultEv
 0002:00000F00       System.$unwind$_ZN6System8OpenTextERNS_8TTextRecEt
 0002:00000F4C       System.$unwind$_ZN6System8TextOpenERNS_8TTextRecE
 0002:0000168C       System.$unwind$_ZN6System8TMonitor10GetMonitorEPNS_7TObjectE
 0002:000016BC       System.$unwind$_ZN6System8TMonitor11QueueWaiterERNS0_14TWaitingThreadE
 0002:000016EC       System.$unwind$_ZN6System8TMonitor12RemoveWaiterERNS0_14TWaitingThreadE
 0002:0000171C       System.$unwind$_ZN6System8TMonitor12SetSpinCountEPNS_7TObjectEi
 0002:00001624       System.$unwind$_ZN6System8TMonitor13DequeueWaiterEv
 0002:00001688       System.$unwind$_ZN6System8TMonitor15GetFieldAddressEPNS_7TObjectE
 0002:000015B4       System.$unwind$_ZN6System8TMonitor16GetCacheLineSizeEv
 0002:000015EC       System.$unwind$_ZN6System8TMonitor17CheckOwningThreadEv
 0002:000015E4       System.$unwind$_ZN6System8TMonitor19CheckMonitorSupportEv
 0002:00001670       System.$unwind$_ZN6System8TMonitor4ExitEPNS_7TObjectE
 0002:00001668       System.$unwind$_ZN6System8TMonitor4ExitEv
 0002:000015B0       System.$unwind$_ZN6System8TMonitor4SpinEi
 0002:00001764       System.$unwind$_ZN6System8TMonitor4WaitEPNS_7TObjectEj
 0002:00001770       System.$unwind$_ZN6System8TMonitor4WaitEPNS_7TObjectES2_j
 0002:00001734       System.$unwind$_ZN6System8TMonitor4WaitEPS0_j
 0002:00001654       System.$unwind$_ZN6System8TMonitor5EnterEj
 0002:00001610       System.$unwind$_ZN6System8TMonitor5EnterEPNS_7TObjectE
 0002:00001618       System.$unwind$_ZN6System8TMonitor5EnterEPNS_7TObjectEj
 0002:000016A4       System.$unwind$_ZN6System8TMonitor5PulseEPNS_7TObjectE
 0002:0000169C       System.$unwind$_ZN6System8TMonitor5PulseEv
 0002:000015F4       System.$unwind$_ZN6System8TMonitor6CreateEv
 0002:000015FC       System.$unwind$_ZN6System8TMonitor7DestroyEPNS_7TObjectE
 0002:00001604       System.$unwind$_ZN6System8TMonitor7DestroyEv
 0002:00001678       System.$unwind$_ZN6System8TMonitor8GetEventEv
 0002:000016B4       System.$unwind$_ZN6System8TMonitor8PulseAllEPNS_7TObjectE
 0002:000016AC       System.$unwind$_ZN6System8TMonitor8PulseAllEv
 0002:00001724       System.$unwind$_ZN6System8TMonitor8TryEnterEPNS_7TObjectE
 0002:0000172C       System.$unwind$_ZN6System8TMonitor8TryEnterEv
 0002:000015AC       System.$unwind$_ZN6System8TMonitor9TSpinLock4ExitEv
 0002:000015A0       System.$unwind$_ZN6System8TMonitor9TSpinLock5EnterEv
 0002:00001598       System.$unwind$_ZN6System8TMonitor9TSpinWait9SpinCycleEv
 0002:00001494       System.$unwind$_ZN6System8_AsClassEPNS_7TObjectEPNS_10TMetaClassE
 0002:00001B60       System.$unwind$_ZN6System8_AStrCmpEPKcS1_x
 0002:00001D54       System.$unwind$_ZN6System8_DisposeEPvS0_
 0002:00001300       System.$unwind$_ZN6System8_FpuInitEv
 0002:00000E10       System.$unwind$_ZN6System8_FreeMemEPv
 0002:00001304       System.$unwind$_ZN6System8_IntOverEv
 0002:0000148C       System.$unwind$_ZN6System8_IsClassEPNS_7TObjectEPNS_10TMetaClassE
 0002:00001B0C       System.$unwind$_ZN6System8_LStrAsgERNS_11AnsiStringTILt0EEES1_
 0002:00001A30       System.$unwind$_ZN6System8_LStrClrEPv
 0002:00001B24       System.$unwind$_ZN6System8_LStrLenENS_11AnsiStringTILt65535EEE
 0002:00001AE0       System.$unwind$_ZN6System8_UStrAsgERNS_13UnicodeStringES0_
 0002:00001C28       System.$unwind$_ZN6System8_UStrCatERNS_13UnicodeStringES0_
 0002:00001A28       System.$unwind$_ZN6System8_UStrClrEPv
 0002:00001C54       System.$unwind$_ZN6System8_UStrCmpENS_13UnicodeStringES0_
 0002:00001B20       System.$unwind$_ZN6System8_UStrLenENS_13UnicodeStringE
 0002:00001164       System.$unwind$_ZN6System8_ValLongENS_13UnicodeStringERi
 0002:00001D0C       System.$unwind$_ZN6System8_VarCopyER8TVarDataRKS0_
 0002:000012C8       System.$unwind$_ZN6System8_WriteLnERNS_8TTextRecE
 0002:00001B04       System.$unwind$_ZN6System8_WStrAsgERNS_10WideStringES0_
 0002:00001A38       System.$unwind$_ZN6System8_WStrClrEPv
 0002:00000E98       System.$unwind$_ZN6System8__IOTestEv
 0002:00000ED4       System.$unwind$_ZN6System9Get8087CWEv
 0002:00001894       System.$unwind$_ZN6System9InitUnitsEv
 0002:00001D44       System.$unwind$_ZN6System9MoveArrayEPvS0_S0_x
 0002:00000C88       System.$unwind$_ZN6System9MoveX16LPEPKvPvx
 0002:00000CF0       System.$unwind$_ZN6System9SysGetMemEx
 0002:00000F3C       System.$unwind$_ZN6System9TextCloseERNS_8TTextRecE
 0002:000025D0       System.$unwind$_ZN6System9TInstItem11RegisterRefERNS_11StaticArrayINS_12DynamicArrayIPPvEELi31EEES3_
 0002:000025A0       System.$unwind$_ZN6System9TInstItem13ClearWeakRefsEv
 0002:00002600       System.$unwind$_ZN6System9TInstItem13UnregisterRefERNS_11StaticArrayINS_12DynamicArrayIPPvEELi31EEES3_
 0002:00002630       System.$unwind$_ZN6System9TInstItem15RegisterWeakRefEPv
 0002:00002638       System.$unwind$_ZN6System9TInstItem17UnregisterWeakRefEPv
 0002:00002640       System.$unwind$_ZN6System9TInstItem21RegisterWeakMethodRefEPv
 0002:00002648       System.$unwind$_ZN6System9TInstItem23UnregisterWeakMethodRefEPv
 0002:000025C4       System.$unwind$_ZN6System9TInstItem4FreeEv
 0002:000025AC       System.$unwind$_ZN6System9TInstItem4LockEv
 0002:00002598       System.$unwind$_ZN6System9TInstItem6CreateEv
 0002:000025B4       System.$unwind$_ZN6System9TInstItem6UnlockEv
 0002:000025BC       System.$unwind$_ZN6System9TInstItem7DestroyEv
 0002:00001A1C       System.$unwind$_ZN6System9WStrErrorEv
 0002:000010C4       System.$unwind$_ZN6System9_FillCharEPvxc
 0002:00001D04       System.$unwind$_ZN6System9_FinalizeEPvS0_
 0002:000012DC       System.$unwind$_ZN6System9_GetCPUIDEjj
 0002:00002580       System.$unwind$_ZN6System9_IntfCastERNS_15DelphiInterfaceINS_10IInterfaceEEES2_RK5_GUID
 0002:00002570       System.$unwind$_ZN6System9_IntfCopyERNS_15DelphiInterfaceINS_10IInterfaceEEES2_
 0002:00001B28       System.$unwind$_ZN6System9_PCharLenEPc
 0002:000010D0       System.$unwind$_ZN6System9_ReadByteERNS_8TTextRecERb
 0002:000010DC       System.$unwind$_ZN6System9_ReadWordERNS_8TTextRecERb
 0002:000019F0       System.$unwind$_ZN6System9_RunErrorEh
 0002:000018D0       System.$unwind$_ZN6System9_StartExeEPNS_16PackageInfoTableEPNS_10TLibModuleE
 0002:00001C38       System.$unwind$_ZN6System9_UStrCat3ERNS_13UnicodeStringES0_S0_
 0002:00001C48       System.$unwind$_ZN6System9_UStrCatNERNS_13UnicodeStringEi
 0002:00001C6C       System.$unwind$_ZN6System9_UStrCopyENS_13UnicodeStringEii
 0002:00001AF4       System.$unwind$_ZN6System9_UStrLAsgERNS_13UnicodeStringES0_
 0002:000011BC       System.$unwind$_ZZN6System11_Write0CharERNS_8TTextRecEcE26WriteUnicodeFromMBCSBufferPv
 0002:00000D70       System.$unwind$_ZZN6System14GetObjectClassEPvE17IsValidVMTAddressS0_S0_
 0002:00000D7C       System.$unwind$_ZZN6System14GetObjectClassEPvE20InternalIsValidClassS0_S0_i
 0002:00002254       System.$unwind$_ZZN6System14GetUILanguagesEtE13LastHyphenPosPvNS_13UnicodeStringE
 0002:000022EC       System.$unwind$_ZZN6System14GetUILanguagesEtE17ThreadUILanguagesPvRi
 0002:00002284       System.$unwind$_ZZN6System14GetUILanguagesEtE23ConvertResToUILanguagesPvPc
 0002:000022FC       System.$unwind$_ZZN6System14GetUILanguagesEtE24GetPreferredLangForNewOSPvt
 0002:000022B4       System.$unwind$_ZZN6System14GetUILanguagesEtE24GetPreferredLangForOldOSPvt
 0002:000022E8       System.$unwind$_ZZN6System14GetUILanguagesEtE26CheckDifferentLanguageListPvPwS1_i
 0002:00000DB8       System.$unwind$_ZZN6System18ScanForMemoryLeaksEvE27CheckSmallBlockPoolForLeaksPvPNS_21TSmallBlockPoolHeaderE
 0002:00002418       System.$unwind$_ZZN6System21GetResourceModuleNameENS_13UnicodeStringES0_E16LoadLanguageListPvS0_S0_
 0002:000023E8       System.$unwind$_ZZN6System21GetResourceModuleNameENS_13UnicodeStringES0_E16ResouceDLLExistsPvS0_
 0002:0000244C       System.$unwind$_ZZN6System21GetResourceModuleNameENS_13UnicodeStringES0_E18Load3LettersModulePvS0_
 0002:00002348       System.$unwind$_ZZN6System25InternalGetLocaleOverrideENS_13UnicodeStringEE10ToLongPathPvPwi
 0002:00002340       System.$unwind$_ZZN6System25InternalGetLocaleOverrideENS_13UnicodeStringEE6FindBSPvPw
 0003:00000A28       System..71
 0001:00001220       System..TCustomAttribute
 0001:000005C8       System..TObject
 0001:00001340       System..VolatileAttribute
 0001:00004D80       System.@Abs
 0001:00007710       System.@AfterConstruction
 0001:00007200       System.@AsClass
 0001:0000A550       System.@AStrCmp
 0001:00007770       System.@BeforeDestruction
 0001:000076D0       System.@ClassCreate
 0001:000076F0       System.@ClassDestroy
 0001:0000FE80       System.@CleanupInstance
 0001:00005340       System.@Close
 0001:0000A5F0       System.@Copy
 0001:0000BC70       System.@CopyArray
 0001:0000B740       System.@CopyRecord
 0001:00008670       System.@DelphiExceptionHandler
 0001:00009200       System.@DestroyException
 0001:0000BFC0       System.@DispCallByIDError
 0001:0000BF90       System.@Dispose
 0001:000092D0       System.@DoneExcept
 0001:0000C810       System.@DynArrayAddRef
 0001:0000C7C0       System.@DynArrayAsg
 0001:0000C740       System.@DynArrayClear
 0001:0000C5B0       System.@DynArrayCopy
 0001:0000C5E0       System.@DynArrayCopyRange
 0001:0000BFE0       System.@DynArrayLength
 0001:0000C570       System.@DynArraySetLength
 0001:00009890       System.@ExitDllLongJump
 0001:000053B0       System.@FillChar
 0001:0000B6F0       System.@Finalize
 0001:0000B580       System.@FinalizeArray
 0001:0000B480       System.@FinalizeRecord
 0001:00009780       System.@FinalizeResStringImports
 0001:00005320       System.@Flush
 0001:000069A0       System.@FpuInit
 0001:000046A0       System.@FreeMem
 0001:00005690       System.@GetAnsiChar
 0001:000068E0       System.@GetCPUID
 0001:00004670       System.@GetMem
 0001:000058F0       System.@GetWideChar
 0001:00009BE0       System.@Halt
 0001:00009A50       System.@Halt0
 0001:0000B360       System.@InitializeArray
 0001:00006970       System.@InitializeControlWord
 0001:0000B2F0       System.@InitializeRecord
 0001:00009730       System.@InitImports
 0001:000095E0       System.@InitResStringImports
 0001:0000E510       System.@IntfAddRef
 0001:00007230       System.@IntfAsClass
 0001:0000E490       System.@IntfCast
 0001:0000E400       System.@IntfClear
 0001:0000E440       System.@IntfCopy
 0001:0000FEB0       System.@IntfWeakClear
 0001:0000FEF0       System.@IntfWeakCopy
 0001:000069B0       System.@IntOver
 0001:000071E0       System.@IsClass
 0001:00009E90       System.@LStrArrayClr
 0001:0000A380       System.@LStrAsg
 0001:00009DD0       System.@LStrClr
 0001:0000A680       System.@LStrFromPChar
 0001:0000A080       System.@LStrFromPCharLen
 0001:0000A6B0       System.@LStrFromPWChar
 0001:0000A1C0       System.@LStrFromPWCharLen
 0001:0000A830       System.@LStrFromUStr
 0001:0000A410       System.@LStrLen
 0001:0000A770       System.@LStrSetLength
 0001:0000A740       System.@LStrToPChar
 0001:00009CE0       System.@NewAnsiString
 0001:00009C80       System.@NewUnicodeString
 0001:0000A420       System.@PCharLen
 0001:0000A440       System.@PWCharLen
 0001:000091C0       System.@RaiseAgain
 0001:00009080       System.@RaiseAtExcept
 0001:000091A0       System.@RaiseExcept
 0001:00005550       System.@ReadByte
 0001:00005C70       System.@ReadLn
 0001:000055F0       System.@ReadWord
 0001:000046D0       System.@ReallocMem
 0001:00004E20       System.@ResetText
 0001:00004E40       System.@RewritText
 0001:00004D60       System.@Round
 0001:00009C00       System.@RunError
 0001:000058B0       System.@SkipAnsiChar
 0001:00005C30       System.@SkipWideChar
 0001:00009470       System.@StartExe
 0001:00002450       System.@strlen
 0001:00004D70       System.@Trunc
 0001:00009C30       System.@UnhandledException
 0001:0000A530       System.@UniqueStringA
 0001:0000A520       System.@UniqueStringU
 0001:00009F10       System.@UStrAddRef
 0001:00009E60       System.@UStrArrayClr
 0001:0000A270       System.@UStrAsg
 0001:0000AC90       System.@UStrCat
 0001:0000AD60       System.@UStrCat3
 0001:0000AE90       System.@UStrCatN
 0001:00009D80       System.@UStrClr
 0001:0000AED0       System.@UStrCmp
 0001:0000AF80       System.@UStrCopy
 0001:0000AF70       System.@UStrEqual
 0001:0000AB30       System.@UStrFromLStr
 0001:0000AA80       System.@UStrFromPChar
 0001:0000A1A0       System.@UStrFromPCharLen
 0001:0000AAB0       System.@UStrFromPWChar
 0001:00009FD0       System.@UStrFromPWCharLen
 0001:0000AB90       System.@UStrFromString
 0001:0000AAE0       System.@UStrFromWArray
 0001:0000AA60       System.@UStrFromWChar
 0001:0000A2F0       System.@UStrLAsg
 0001:0000A400       System.@UStrLen
 0001:0000ABB0       System.@UStrSetLength
 0001:0000AA30       System.@UStrToPWChar
 0001:00005D10       System.@ValLong
 0001:0000B550       System.@VarClr
 0001:0000B710       System.@VarCopy
 0001:0000A9B0       System.@WCharToString
 0001:000061D0       System.@Write0Char
 0001:00006390       System.@Write0CString
 0001:00006430       System.@Write0LString
 0001:00006610       System.@Write0UString
 0001:00005F50       System.@WriteBytes
 0001:000063B0       System.@WriteCString
 0001:00006770       System.@WriteLn
 0001:00006510       System.@WriteLString
 0001:00006010       System.@WriteSpaces
 0001:00006630       System.@WriteUString
 0001:00009EC0       System.@WStrArrayClr
 0001:0000A330       System.@WStrAsg
 0001:00009E20       System.@WStrClr
 0001:0000A030       System.@WStrFromPWCharLen
 0001:0000AB60       System.@WStrFromUStr
 0001:00004D90       System.@_FlushMBCSBuffer
 0001:00004990       System.@_IOTest
 0002:00000EE8       System.ABSMASK
 0003:00000068       System.AbstractErrorProc
 0001:000048A0       System.AcquireExceptionObject
 0001:0000E1D0       System.AddModuleUnloadProc
 0001:00002980       System.AllocateLargeBlock
 0001:00004750       System.AllocateRaiseFrame
 0001:00004640       System.AllocMem
 0001:00002890       System.AllocNewSequentialFeedMediumPool
 0003:00000A2C       System.AllocSize2SmallBlockTypeIndX4
 0002:00000050       System.AlternateWriteUnicodeStringProc
 0002:00000090       System.AnsiStringBlockMessage
 0001:00003860       System.AppendClassNameToBuffer
 0001:00003830       System.AppendStringToBuffer
 0003:00000058       System.AssertErrorProc
 0001:000027F0       System.BinMediumSequentialFeedRemainder
 0001:000042C0       System.BuildBlockTypeLookupTable
 0002:00000080       System.BytesMessage
 0003:00004F18       System.CachedLangID
 0003:00004F1A       System.CachedLanguageNames
 0001:00009F30       System.CharFromWChar
 0001:00009F80       System.CharFromWChar
 0001:00002310       System.CharNext
 0001:0000D030       System.CheckDifferentLanguageList
 0001:00003BA0       System.CheckSmallBlockPoolForLeaks
 0001:00002070       System.CloseHandle
 0003:00000088       System.CmdLine
 0003:00000080       System.CmdShow
 0001:00002320       System.CompareString
 0001:0000CCB0       System.ConvertResToUILanguages
 0003:000000A0       System.CPUCount
 0003:00000998       System.CPUIDTable
 0001:00002090       System.CreateFile
 0003:00004EF0       System.CrSec
 0002:00000038       System.DebugHook
 0002:00000030       System.Default8087CW
 0002:00000034       System.DefaultMXCSR
 0003:00000A18       System.DefaultSystemCodePage
 0002:0000003B       System.DefaultTextLineBreakStyle
 0003:00000A1C       System.DefaultUnicodeCodePage
 0001:0000C830       System.DelayLoadResourceModule
 0001:00002150       System.DeleteCriticalSection
 0003:00000008       System.DispCallByIDProc
 0003:00004D98       System.DLLThreadContext
 0001:0000C140       System.DynArraySetLength
 0002:00001B78       System.EmptyStringA
 0002:00001B80       System.EmptyStringW
 0001:00002130       System.EnterCriticalSection
 0001:0000E190       System.EnumResourceModules
 0002:00001850       System.errCaption
 0001:00004970       System.Error
 0002:00000008       System.ErrorAddr
 0001:00004910       System.ErrorAt
 0003:00000018       System.ErrorProc
 0003:00000698       System.ErrOutput
 0001:00004870       System.ExceptAddr
 0003:00000020       System.ExceptClsProc
 0003:00000048       System.ExceptionAcquired
 0003:00000050       System.ExceptionClass
 0004:00000200       System.ExceptionObjectCount
 0004:00000000       System.ExceptionObjects
 0001:00004840       System.ExceptObject
 0003:00000028       System.ExceptObjProc
 0003:00000010       System.ExceptProc
 0002:00000000       System.ExitCode
 0001:00009900       System.ExitDll
 0003:00000090       System.ExitProc
 0001:00002180       System.ExitProcess
 0003:00000060       System.ExitProcessProc
 0003:00004C58       System.ExpectedMemoryLeaks
 0003:00004C60       System.ExpectedMemoryLeaksListLocked
 0001:00004CF0       System.FGetExceptMask
 0002:00000010       System.FileMode
 0001:00004EB0       System.FileNOPProc
 0001:00010540       System.Finalization
 0001:0000BFB0       System.FinalizeArray
 0001:0000CBD0       System.FinalizeLocaleDate
 0001:000045D0       System.FinalizeMemoryManager
 0001:00009330       System.FinalizeUnits
 0001:0000D3F0       System.FindBS
 0001:00002100       System.FindClose
 0001:00002110       System.FindFirstFile
 0001:00008580       System.FindOnExceptionDescEntry
 0001:0000C890       System.FindResourceHInstance
 0001:00005300       System.Flush
 0001:00004C10       System.FRaiseExcept
 0001:000044B0       System.FreeAllMemory
 0001:00002A10       System.FreeLargeBlock
 0001:000021E0       System.FreeLibrary
 0001:00004BD0       System.FSetExceptFlag
 0001:00004D10       System.Get8087CW
 0001:00002260       System.GetACP
 0001:000024E0       System.GetCmdShow
 0001:00002200       System.GetCommandLine
 0001:00002270       System.GetConsoleCP
 0001:00002280       System.GetConsoleOutputCP
 0001:00010370       System.GetCPUCount
 0001:00006900       System.GetCPUID
 0001:00002160       System.GetCurrentThreadId
 0001:00007270       System.GetDynaMethod
 0001:000020A0       System.GetFileSize
 0001:000020B0       System.GetFileType
 0001:00003770       System.GetFirstAndLastSmallBlockInPool
 0001:00003730       System.GetFirstMediumBlockInPool
 0001:000021D0       System.GetLastError
 0001:000022B0       System.GetLocaleInfo
 0001:0000DAA0       System.GetLocaleOverride
 0001:000024D0       System.GetLogicalProcessorInformation
 0001:00002210       System.GetModuleFileName
 0001:00002220       System.GetModuleHandle
 0001:00004D50       System.GetMXCSR
 0001:000039D0       System.GetObjectClass
 0001:0000D0C0       System.GetPreferredLangForNewOS
 0001:0000CE00       System.GetPreferredLangForOldOS
 0001:00002230       System.GetProcAddress
 0001:0000DE70       System.GetResourceModuleName
 0001:00002240       System.GetStartupInfo
 0001:00002080       System.GetStdHandle
 0001:000022D0       System.GetSystemDefaultUILanguage
 0001:000023F0       System.GetSystemInfo
 0003:00004ED0       System.GetThreadPreferredUILanguages
 0003:00004EE0       System.GetThreadUILanguage
 0001:00002400       System.GetTickCount
 0001:0000D230       System.GetUILanguages
 0001:000022C0       System.GetUserDefaultUILanguage
 0001:000023E0       System.GetVersion
 0002:000019AC       System.hexDigits
 0003:00004C70       System.InitContext
 0001:00006920       System.InitializeCPUID
 0001:00002120       System.InitializeCriticalSection
 0001:0000CAC0       System.InitializeLocaleData
 0001:00004330       System.InitializeMemoryManager
 0001:000093D0       System.InitUnits
 0004:00000210       System.InOutRes
 0003:000000A8       System.Input
 0001:00002780       System.InsertMediumBlockIntoBin
 0003:00004FC8       System.InstHashMap
 0001:00004F10       System.InternalClose
 0001:000052A0       System.InternalFlush
 0001:0000D670       System.InternalGetLocaleOverride
 0001:0000BFF0       System.InternalHasWeakRef
 0001:00003940       System.InternalIsValidClass
 0001:0000A4C0       System.InternalUniqueStringA
 0001:0000A460       System.InternalUniqueStringU
 0001:0000A860       System.InternalUStrCatN
 0001:0000A0D0       System.InternalUStrFromPCharLen
 0001:00006E60       System.InvokeImplGetter
 0001:000049E0       System.IOResult
 0003:00000098       System.IsConsole
 0001:00002300       System.IsDBCSLeadByteEx
 0003:0000007C       System.IsLibrary
 0003:00000099       System.IsMultiThread
 0001:000022F0       System.IsValidLocale
 0001:000038B0       System.IsValidVMTAddress
 0002:00000039       System.JITEnable
 0001:00002460       System.kernel32.dll
 0003:00004C38       System.LargeBlocksCircularList
 0003:00004C30       System.LargeBlocksLocked
 0002:00000078       System.LargeLeakDetail
 0001:0000CC30       System.LastHyphenPos
 0003:00000BA0       System.LastSequentiallyFedMediumBlock
 0002:000000A0       System.LeakMessageFooter
 0002:00000068       System.LeakMessageHeader
 0002:000000A8       System.LeakMessageTitle
 0001:00002140       System.LeaveCriticalSection
 0002:00000040       System.LibModuleList
 0001:0000DD50       System.Load3LettersModule
 0001:0000DC30       System.LoadLanguageList
 0001:00002250       System.LoadLibraryEx
 0001:0000E0A0       System.LoadResourceModule
 0001:00010280       System.LoadResString
 0001:000094D0       System.LoadResStringA
 0001:000095C0       System.LoadResStringU
 0001:00009550       System.LoadResStringW
 0001:000021F0       System.LoadString
 0001:00010310       System.LocaleCharsFromUnicode
 0002:00001E28       System.LocaleTable
 0001:00003A10       System.LockExpectedMemoryLeaksList
 0001:00002930       System.LockLargeBlocks
 0001:000026E0       System.LockMediumBlocks
 0003:00000070       System.MainInstance
 0003:00000078       System.MainThreadID
 0001:00009800       System.MakeErrorMessage
 0003:00004C68       System.MappingObjectHandle
 0001:0000FDB0       System.MarkWeakReferenced
 0003:00000BB0       System.MediumBlockBinBitmaps
 0003:00000BAC       System.MediumBlockBinGroupBitmap
 0003:00000C30       System.MediumBlockBins
 0003:00000B78       System.MediumBlockPoolsCircularList
 0003:00000B98       System.MediumBlocksLocked
 0003:00000BA8       System.MediumSequentialFeedBytesLeft
 0002:00000C48       System.MemoryManager
 0001:000023A0       System.MessageBoxA
 0002:00000C40       System.MinimumBlockAlignment
 0002:00000048       System.ModuleUnloadList
 0003:00000990       System.MonitorSupport
 0001:00004A10       System.Move
 0001:00002640       System.Move24
 0001:00002660       System.Move40
 0001:00002680       System.Move56
 0001:00002630       System.Move8
 0001:0000BE40       System.MoveArray
 0001:0000BA00       System.MoveRecord
 0001:000026B0       System.MoveX16LP
 0001:00002290       System.MultiByteToWideChar
 0001:000037C0       System.NativeUIntToStrBuf
 0003:00000A25       System.NeverSleepOnMMThreadContention
 0001:00003710       System.NextMediumBlock
 0002:0000003A       System.NoErrMsg
 0001:000084A0       System.NotifyAnyExcept
 0001:00008450       System.NotifyExcept
 0001:000084C0       System.NotifyExceptFinally
 0001:0000E270       System.NotifyModuleUnload
 0001:00008410       System.NotifyNonDelphiException
 0001:00008480       System.NotifyOnExcept
 0001:000083E0       System.NotifyReRaise
 0001:00008500       System.NotifyTerminate
 0001:00008540       System.NotifyUnhandled
 0002:00000058       System.ObjCastGUID
 0001:00004DA0       System.OpenText
 0003:000003A0       System.Output
 0001:0000B090       System.Pos
 0001:0000AFE0       System.Pos
 0002:00000F78       System.Pow10Tab0
 0002:00001078       System.Pow10Tab1
 0001:000067B0       System.Power10
 0002:00002238       System.PreferredLanguagesOverride
 0004:00000218       System.PrevElementType
 0004:00000220       System.PrevElementTypeResult
 0001:00002190       System.RaiseException
 0003:00000030       System.RaiseExceptionProc
 0003:00000040       System.RaiseExceptObjProc
 0004:00000208       System.RaiseListPtr
 0001:000020C0       System.ReadFile
 0001:00002AD0       System.ReallocateLargeBlock
 0001:000023B0       System.RegCloseKey
 0003:00004EC0       System.RegisteredTypeInfoTable
 0001:0000E2E0       System.RegisterModule
 0001:0000FE00       System.RegisterWeakRef
 0001:000023C0       System.RegOpenKeyEx
 0001:000023D0       System.RegQueryValueEx
 0001:000047E0       System.ReleaseRaiseFrame
 0002:00000E24       System.reMap
 0001:00002730       System.RemoveMediumFreeBlock
 0001:0000E200       System.RemoveModuleUnloadProc
 0003:00000A24       System.ReportMemoryLeaksOnShutdown
 0001:0000DBA0       System.ResouceDLLExists
 0001:000021A0       System.RtlUnwind
 0001:000021B0       System.RtlUnwindEx
 0003:00000038       System.RTLUnwindProc
 0002:00001940       System.runErrMsg
 0001:000048F0       System.RunErrorAt
 0001:00003DA0       System.ScanForMemoryLeaks
 0001:0000B140       System.SetCodePage
 0001:000020D0       System.SetEndOfFile
 0001:000020E0       System.SetFilePointer
 0001:000049C0       System.SetInOutRes
 0001:0000DB20       System.SetLocaleOverride
 0001:00004D20       System.SetMXCSRExceptionFlag
 0001:000022E0       System.SetThreadLocale
 0003:00004ED8       System.SetThreadPreferredUILanguages
 0001:00010390       System.SetUTF8CompareLocale
 0001:00003630       System.ShowMessage
 0001:00002540       System.Sleep
 0002:000000C0       System.SmallBlockTypes
 0002:00000070       System.SmallLeakDetail
 0001:0000CBF0       System.StringCopy
 0001:00002170       System.SwitchToThread
 0001:000035D0       System.SysAllocMem
 0001:00002420       System.SysAllocStringLen
 0001:00003030       System.SysFreeMem
 0001:00002440       System.SysFreeString
 0001:00002C60       System.SysGetMem
 0001:0000C0E0       System.SysHasWeakRef
 0001:00003250       System.SysReallocMem
 0001:00002430       System.SysReAllocStringLen
 0001:00003AA0       System.SysRegisterExpectedMemoryLeak
 0001:000105E0       System.System
 0001:00003B00       System.SysUnregisterExpectedMemoryLeak
 0003:0000009A       System.Test8086
 0003:0000009C       System.TestSSE
 0001:00004F30       System.TextClose
 0001:00004E60       System.TextIn
 0001:00004F90       System.TextOpen
 0001:00004F60       System.TextOpenCleanup
 0001:00004EC0       System.TextOut
 0001:000103E0       System.TGUID.&op_Equality
 0001:00010400       System.TGUID.&op_Inequality
 0001:00010420       System.TGUID.Create
 0001:000104D0       System.TGUID.Create
 0001:00010510       System.TGUID.Empty
 0001:0000D060       System.ThreadUILanguages
 0001:0000F250       System.TInstBucket.AddInstItem
 0001:0000F3F0       System.TInstBucket.Finalize
 0001:0000F360       System.TInstBucket.FindInstItem
 0001:0000F450       System.TInstBucket.Initialize
 0001:0000F470       System.TInstBucket.Lock
 0001:0000F490       System.TInstBucket.RemoveInstItem
 0001:0000F520       System.TInstBucket.Unlock
 0001:0000F750       System.TInstHashMap.Destroy
 0001:0000F600       System.TInstHashMap.Finalize
 0001:0000F540       System.TInstHashMap.FreeInstItem
 0001:0000F660       System.TInstHashMap.Initialize
 0001:0000FCC0       System.TInstHashMap.IsRegistered
 0001:0000F5A0       System.TInstHashMap.NewInstItem
 0001:0000F5C0       System.TInstHashMap.PopInstItem
 0001:0000FA80       System.TInstHashMap.RegisterWeakMethodRef
 0001:0000F840       System.TInstHashMap.RegisterWeakRef
 0001:0000FBC0       System.TInstHashMap.UnregisterWeakMethodRef
 0001:0000F980       System.TInstHashMap.UnregisterWeakRef
 0001:0000ED30       System.TInstItem.ClearWeakRefs
 0001:0000ED00       System.TInstItem.Create
 0001:0000EE60       System.TInstItem.Destroy
 0001:0000EE80       System.TInstItem.Free
 0001:0000EE20       System.TInstItem.Lock
 0001:0000EEC0       System.TInstItem.RegisterRef
 0001:0000F1F0       System.TInstItem.RegisterWeakMethodRef
 0001:0000F190       System.TInstItem.RegisterWeakRef
 0001:0000EE40       System.TInstItem.Unlock
 0001:0000F090       System.TInstItem.UnregisterRef
 0001:0000F220       System.TInstItem.UnregisterWeakMethodRef
 0001:0000F1C0       System.TInstItem.UnregisterWeakRef
 0003:00000000       System.TMonitor.CacheLineSize
 0001:000079C0       System.TMonitor.CheckMonitorSupport
 0001:000079E0       System.TMonitor.CheckOwningThread
 0001:00007A00       System.TMonitor.Create
 0001:00007B40       System.TMonitor.DequeueWaiter
 0001:00007A70       System.TMonitor.Destroy
 0001:00007AA0       System.TMonitor.Destroy
 0001:00007AE0       System.TMonitor.Enter
 0001:00007B10       System.TMonitor.Enter
 0001:00007BF0       System.TMonitor.Enter
 0001:00007DC0       System.TMonitor.Exit
 0001:00007E20       System.TMonitor.Exit
 0003:00000004       System.TMonitor.FDefaultSpinCount
 0001:00007880       System.TMonitor.GetCacheLineSize
 0001:00007E50       System.TMonitor.GetEvent
 0001:00007ED0       System.TMonitor.GetFieldAddress
 0001:00007EE0       System.TMonitor.GetMonitor
 0001:00007F50       System.TMonitor.Pulse
 0001:00007F80       System.TMonitor.Pulse
 0001:00007FB0       System.TMonitor.PulseAll
 0001:00007FF0       System.TMonitor.PulseAll
 0001:00008020       System.TMonitor.QueueWaiter
 0001:000080D0       System.TMonitor.RemoveWaiter
 0001:000081E0       System.TMonitor.SetSpinCount
 0001:00007870       System.TMonitor.Spin
 0001:00008230       System.TMonitor.TryEnter
 0001:00008200       System.TMonitor.TryEnter
 0001:00007820       System.TMonitor.TSpinLock.Enter
 0001:00007860       System.TMonitor.TSpinLock.Exit
 0001:00007790       System.TMonitor.TSpinWait.SpinCycle
 0001:000083A0       System.TMonitor.Wait
 0001:00008280       System.TMonitor.Wait
 0001:00008370       System.TMonitor.Wait
 0001:00007360       System.TObject.AfterConstruction
 0001:00007370       System.TObject.BeforeDestruction
 0001:00007310       System.TObject.ClassInfo
 0001:000069E0       System.TObject.ClassName
 0001:00006AF0       System.TObject.ClassNameIs
 0001:00006BB0       System.TObject.ClassParent
 0001:000069D0       System.TObject.ClassType
 0001:00006DF0       System.TObject.CleanupInstance
 0001:00006C20       System.TObject.CPP_ABI_1
 0001:00006C30       System.TObject.CPP_ABI_2
 0001:00006C40       System.TObject.CPP_ABI_3
 0001:00006C50       System.TObject.Create
 0001:00007350       System.TObject.DefaultHandler
 0001:00006CE0       System.TObject.Destroy
 0001:00007380       System.TObject.Dispatch
 0001:00006D30       System.TObject.DisposeOf
 0001:00006F00       System.TObject.Equals
 0001:000075F0       System.TObject.FieldAddress
 0001:000076A0       System.TObject.FieldAddress
 0001:00006D10       System.TObject.Free
 0001:00006C00       System.TObject.FreeInstance
 0001:00006F10       System.TObject.GetHashCode
 0001:00006F20       System.TObject.GetInterface
 0001:00007010       System.TObject.GetInterfaceEntry
 0001:00006D40       System.TObject.GetInterfaceTable
 0001:000072F0       System.TObject.InheritsFrom
 0001:00006D50       System.TObject.InitInstance
 0001:00006BC0       System.TObject.InstanceSize
 0001:00007540       System.TObject.MethodAddress
 0001:00007490       System.TObject.MethodAddress
 0001:00007570       System.TObject.MethodName
 0001:00006BD0       System.TObject.NewInstance
 0001:00006A10       System.TObject.QualifiedClassName
 0001:00007320       System.TObject.SafeCallException
 0001:00007330       System.TObject.ToString
 0001:000070A0       System.TObject.UnitName
 0001:00007140       System.TObject.UnitScope
 0001:0000D420       System.ToLongPath
 0001:00005500       System.TryOpenForInput
 0001:00005EF0       System.TryOpenForOutput
 0001:000021C0       System.UnhandledExceptionFilter
 0001:00010350       System.UnicodeFromLocaleChars
 0002:00000098       System.UnicodeStringBlockMessage
 0001:0000FF70       System.UnicodeToUtf8
 0001:0000A540       System.UniqueString
 0002:00000088       System.UnknownClassNameMsg
 0001:0000E300       System.UnregisterModule
 0001:0000FE50       System.UnregisterWeakRef
 0001:00002330       System.user32.dll
 0003:00004EE8       System.UseThreadUILanguageAPI
 0001:000073F0       System.UTF8Compare
 0003:00000A20       System.UTF8CompareLocale
 0001:00010140       System.UTF8EncodeToShortString
 0001:00007520       System.UTF8ShortStringToString
 0001:00010260       System.UTF8ToString
 0001:00010080       System.Utf8ToUnicode
 0001:00010190       System.UTF8ToUnicodeString
 0002:00000018       System.VarClearProc
 0002:00000020       System.VarCopyProc
 0002:00000028       System.VarToUStrProc
 0001:00002520       System.VirtualAlloc
 0001:00002530       System.VirtualFree
 0001:00002410       System.VirtualQuery
 0001:00009FA0       System.WCharFromChar
 0001:000022A0       System.WideCharToMultiByte
 0001:00002550       System.WriteConsoleFile
 0001:00009970       System.WriteErrorMessage
 0001:000020F0       System.WriteFile
 0001:00006120       System.WriteUnicodeFromMBCSBuffer
 0001:00009D60       System.WStrError
 0005:00001704       System.Character.$pdata$_ZN6System9Character11TCharHelper8IsLetterEv
 0005:00001710       System.Character.$pdata$_ZN6System9Character11TCharHelper8IsNumberEv
 0005:0000171C       System.Character.$pdata$_ZN6System9Character12FinalizationEv
 0005:00001728       System.Character.$pdata$_ZN6System9Character14initializationEv
 0005:000016EC       System.Character.$pdata$_ZN6System9Character19CharTableInitializeEv
 0005:000016F8       System.Character.$pdata$_ZN6System9Character26InternalGetUnicodeCategoryEj
 0005:000016E0       System.Character.$pdata$_ZZN6System9Character19CharTableInitializeEvE8bin_dataPv
 0002:00002BA0       System.Character.$unwind$_ZN6System9Character11TCharHelper8IsLetterEv
 0002:00002BA8       System.Character.$unwind$_ZN6System9Character11TCharHelper8IsNumberEv
 0002:00002BB0       System.Character.$unwind$_ZN6System9Character12FinalizationEv
 0002:00002BB4       System.Character.$unwind$_ZN6System9Character14initializationEv
 0002:00002B90       System.Character.$unwind$_ZN6System9Character19CharTableInitializeEv
 0002:00002B9C       System.Character.$unwind$_ZN6System9Character26InternalGetUnicodeCategoryEj
 0002:00002B8C       System.Character.$unwind$_ZZN6System9Character19CharTableInitializeEvE8bin_dataPv
 0003:000062DC       System.Character..1
 0001:00012A70       System.Character.bin_data
 0003:000062F8       System.Character.CategoryTable
 0003:000062E8       System.Character.CatIndexPrimary
 0003:000062F0       System.Character.CatIndexSecondary
 0001:00017800       System.Character.CharTableInitialize
 0003:000062E0       System.Character.DataTable
 0001:00017A40       System.Character.Finalization
 0001:000178A0       System.Character.InternalGetUnicodeCategory
 0003:00006318       System.Character.NumericValueTable
 0003:00006300       System.Character.NumIndexPrimary
 0003:00006308       System.Character.NumIndexSecondary
 0003:00006310       System.Character.NumIndexTertiary
 0001:00017A50       System.Character.System.Character
 0001:00017900       System.Character.TCharHelper.IsLetter
 0001:000179A0       System.Character.TCharHelper.IsNumber
 0005:00001734       System.Internal.ExcUtils.$pdata$_ZN6System8Internal8Excutils12FinalizationEv
 0005:0000174C       System.Internal.ExcUtils.$pdata$_ZN6System8Internal8Excutils14initializationEv
 0002:00002E08       System.Internal.ExcUtils.$unwind$_ZN6System8Internal8Excutils12FinalizationEv
 0002:00002E34       System.Internal.ExcUtils.$unwind$_ZN6System8Internal8Excutils14initializationEv
 0003:00006320       System.Internal.ExcUtils..2
 0002:00002C68       System.Internal.ExcUtils.ExceptMap
 0002:00002BC0       System.Internal.ExcUtils.ExceptTypes
 0001:00017EF0       System.Internal.ExcUtils.Finalization
 0001:00017F30       System.Internal.ExcUtils.System.Internal.ExcUtils
 0005:000016C8       System.RTLConsts.$pdata$_ZN6System9Rtlconsts12FinalizationEv
 0005:000016D4       System.RTLConsts.$pdata$_ZN6System9Rtlconsts14initializationEv
 0002:00002B84       System.RTLConsts.$unwind$_ZN6System9Rtlconsts12FinalizationEv
 0002:00002B88       System.RTLConsts.$unwind$_ZN6System9Rtlconsts14initializationEv
 0003:000062D8       System.RTLConsts..1
 0001:00012A50       System.RTLConsts.Finalization
 0001:00012A60       System.RTLConsts.System.RTLConsts
 0005:00001668       System.SysConst.$pdata$_ZN6System8Sysconst12FinalizationEv
 0005:00001674       System.SysConst.$pdata$_ZN6System8Sysconst14initializationEv
 0002:00002B60       System.SysConst.$unwind$_ZN6System8Sysconst12FinalizationEv
 0002:00002B64       System.SysConst.$unwind$_ZN6System8Sysconst14initializationEv
 0003:000062C0       System.SysConst..1
 0001:00012850       System.SysConst.Finalization
 0001:00012860       System.SysConst.System.SysConst
 0005:00001FC8       System.SysUtils.$pdata$_ZN6System8Sysutils10AnsiStrPosEPwS1_
 0005:00001FBC       System.SysUtils.$pdata$_ZN6System8Sysutils10CharLengthENS_13UnicodeStringEi
 0005:00001788       System.SysUtils.$pdata$_ZN6System8Sysutils10CompareStrENS_13UnicodeStringES1_
 0005:00001A88       System.SysUtils.$pdata$_ZN6System8Sysutils10EncodeDateEttt
 0005:00001A64       System.SysUtils.$pdata$_ZN6System8Sysutils10EncodeTimeEtttt
 0005:0000207C       System.SysUtils.$pdata$_ZN6System8Sysutils10FreeAndNilEPv
 0005:00001A70       System.SysUtils.$pdata$_ZN6System8Sysutils10IsLeapYearEt
 0005:00001EFC       System.SysUtils.$pdata$_ZN6System8Sysutils10NewSyncObjEv
 0005:00001F14       System.SysUtils.$pdata$_ZN6System8Sysutils10NewWaitObjEv
 0005:0000210C       System.SysUtils.$pdata$_ZN6System8Sysutils10TLanguages11GetLocaleIDEi
 0005:00002118       System.SysUtils.$pdata$_ZN6System8Sysutils10TLanguages13GetLocaleNameEi
 0005:00002154       System.SysUtils.$pdata$_ZN6System8Sysutils10TLanguages15GetNameFromLCIDENS_13UnicodeStringE
 0005:000020A0       System.SysUtils.$pdata$_ZN6System8Sysutils10TLanguages15LocalesCallbackEPw
 0005:00002160       System.SysUtils.$pdata$_ZN6System8Sysutils10TLanguages19GetLocaleIDFromNameENS_13UnicodeStringE
 0005:00002130       System.SysUtils.$pdata$_ZN6System8Sysutils10TLanguages19GetNameFromLocaleIDEj
 0005:0000213C       System.SysUtils.$pdata$_ZN6System8Sysutils10TLanguages25GetLocaleIDFromLocaleNameENS_13UnicodeStringE
 0005:000020F4       System.SysUtils.$pdata$_ZN6System8Sysutils10TLanguages5GetIDEi
 0005:000020E8       System.SysUtils.$pdata$_ZN6System8Sysutils10TLanguages6GetExtEi
 0005:00002124       System.SysUtils.$pdata$_ZN6System8Sysutils10TLanguages7GetNameEi
 0005:00002178       System.SysUtils.$pdata$_ZN6System8Sysutils10TLanguages7IndexOfEj
 0005:00002184       System.SysUtils.$pdata$_ZN6System8Sysutils10TLanguages7IndexOfENS_13UnicodeStringE
 0005:000020DC       System.SysUtils.$pdata$_ZN6System8Sysutils10TLanguages8GetCountEv
 0005:000020B8       System.SysUtils.$pdata$_ZN6System8Sysutils10TLanguagesC3Ev
 0005:000020D0       System.SysUtils.$pdata$_ZN6System8Sysutils10TLanguagesD0Ev
 0005:00001758       System.SysUtils.$pdata$_ZN6System8Sysutils10TLanguagesv04cctrEv
 0005:00002190       System.SysUtils.$pdata$_ZN6System8Sysutils10TLanguagesv04cdtrEv
 0005:00002268       System.SysUtils.$pdata$_ZN6System8Sysutils10TOSVersion5CheckEii
 0005:0000225C       System.SysUtils.$pdata$_ZN6System8Sysutils10TOSVersionv04cctrEv
 0005:00001764       System.SysUtils.$pdata$_ZN6System8Sysutils10TOSVersionv04cdtrEv
 0005:00001794       System.SysUtils.$pdata$_ZN6System8Sysutils11CompareTextENS_13UnicodeStringES1_
 0005:000019F8       System.SysUtils.$pdata$_ZN6System8Sysutils11FloatToTextEPwPKvNS0_11TFloatValueENS0_12TFloatFormatEiiRKNS0_15TFormatSettingsE
 0005:00001908       System.SysUtils.$pdata$_ZN6System8Sysutils11FormatErrorEiPwj
 0005:00001F08       System.SysUtils.$pdata$_ZN6System8Sysutils11FreeSyncObjEPv
 0005:00001F20       System.SysUtils.$pdata$_ZN6System8Sysutils11FreeWaitObjEPv
 0005:00001FA4       System.SysUtils.$pdata$_ZN6System8Sysutils11StrByteTypeEPwj
 0005:0000186C       System.SysUtils.$pdata$_ZN6System8Sysutils11StrToIntDefENS_13UnicodeStringEi
 0005:00001878       System.SysUtils.$pdata$_ZN6System8Sysutils11TryStrToIntENS_13UnicodeStringERi
 0005:000017B8       System.SysUtils.$pdata$_ZN6System8Sysutils11_IntToStr32Ejb
 0005:000017C4       System.SysUtils.$pdata$_ZN6System8Sysutils11_IntToStr64Eyb
 0005:00001FD4       System.SysUtils.$pdata$_ZN6System8Sysutils12AnsiStrRScanEPww
 0005:00001770       System.SysUtils.$pdata$_ZN6System8Sysutils12ConvertErrorEPNS_13TResStringRecE
 0005:00001E18       System.SysUtils.$pdata$_ZN6System8Sysutils12ErrorHandlerEhPv
 0005:00002274       System.SysUtils.$pdata$_ZN6System8Sysutils12FinalizationEv
 0005:00001AA0       System.SysUtils.$pdata$_ZN6System8Sysutils12GetLocaleStrEiiNS_13UnicodeStringE
 0005:00002034       System.SysUtils.$pdata$_ZN6System8Sysutils12HashNameMBCSEPc
 0005:00001E48       System.SysUtils.$pdata$_ZN6System8Sysutils12MapExceptionEPNS_16TExceptionRecordE
 0005:00001830       System.SysUtils.$pdata$_ZN6System8Sysutils12_UIntToHex32Eji
 0005:0000183C       System.SysUtils.$pdata$_ZN6System8Sysutils12_UIntToHex64Eyi
 0005:000017AC       System.SysUtils.$pdata$_ZN6System8Sysutils13AnsiLowerCaseENS_13UnicodeStringE
 0005:000017A0       System.SysUtils.$pdata$_ZN6System8Sysutils13AnsiUpperCaseENS_13UnicodeStringE
 0005:00001E9C       System.SysUtils.$pdata$_ZN6System8Sysutils13ExceptHandlerEPNS_7TObjectEPv
 0005:00001AAC       System.SysUtils.$pdata$_ZN6System8Sysutils13GetLocaleCharEiiw
 0005:00001FEC       System.SysUtils.$pdata$_ZN6System8Sysutils13InitSysLocaleEv
 0005:00001BF0       System.SysUtils.$pdata$_ZN6System8Sysutils13ShowExceptionEPNS_7TObjectEPv
 0005:00001FB0       System.SysUtils.$pdata$_ZN6System8Sysutils13StrCharLengthEPKw
 0005:0000201C       System.SysUtils.$pdata$_ZN6System8Sysutils13StringReplaceENS_13UnicodeStringES1_S1_NS_3SetINS0_19System_Sysutils__85ELS3_0ELS3_1EEE
 0005:00001A7C       System.SysUtils.$pdata$_ZN6System8Sysutils13TryEncodeDateEtttRNS_9TDateTimeE
 0005:00001A58       System.SysUtils.$pdata$_ZN6System8Sysutils13TryEncodeTimeEttttRNS_9TDateTimeE
 0005:00002244       System.SysUtils.$pdata$_ZN6System8Sysutils13TStringHelper11ToCharArrayEii
 0005:00002238       System.SysUtils.$pdata$_ZN6System8Sysutils13TStringHelper11ToCharArrayEv
 0005:000021FC       System.SysUtils.$pdata$_ZN6System8Sysutils13TStringHelper13LastDelimiterENS_13UnicodeStringE
 0005:000021C0       System.SysUtils.$pdata$_ZN6System8Sysutils13TStringHelper15InternalCompareENS_13UnicodeStringEiS2_iiibj
 0005:000021D8       System.SysUtils.$pdata$_ZN6System8Sysutils13TStringHelper15InternalCompareENS_13UnicodeStringEiS2_iiiNS_3SetINS0_14TCompareOptionELS4_0ELS4_9EEEj
 0005:000021CC       System.SysUtils.$pdata$_ZN6System8Sysutils13TStringHelper25InternalMapOptionsToFlagsENS_3SetINS0_14TCompareOptionELS3_0ELS3_9EEE
 0005:000021F0       System.SysUtils.$pdata$_ZN6System8Sysutils13TStringHelper6CreateEPKwi
 0005:000021B4       System.SysUtils.$pdata$_ZN6System8Sysutils13TStringHelper7CompareENS_13UnicodeStringEiS2_iib
 0005:000021E4       System.SysUtils.$pdata$_ZN6System8Sysutils13TStringHelper7CompareENS_13UnicodeStringEiS2_iibj
 0005:00002208       System.SysUtils.$pdata$_ZN6System8Sysutils13TStringHelper7ReplaceEww
 0005:000021A8       System.SysUtils.$pdata$_ZN6System8Sysutils13TStringHelper9GetLengthEv
 0005:00002220       System.SysUtils.$pdata$_ZN6System8Sysutils13TStringHelper9SubstringEi
 0005:0000222C       System.SysUtils.$pdata$_ZN6System8Sysutils13TStringHelper9SubstringEii
 0005:00001980       System.SysUtils.$pdata$_ZN6System8Sysutils13WideFormatBufEPvjPKvjPKNS_7TVarRecEiRKNS0_15TFormatSettingsE
 0005:00001EB4       System.SysUtils.$pdata$_ZN6System8Sysutils14DoneExceptionsEv
 0005:00001DF4       System.SysUtils.$pdata$_ZN6System8Sysutils14EHeapException12FreeInstanceEv
 0005:00001E00       System.SysUtils.$pdata$_ZN6System8Sysutils14EHeapException16RaisingExceptionEPNS_16TExceptionRecordE
 0005:00001A34       System.SysUtils.$pdata$_ZN6System8Sysutils14FloatToDecimalERNS0_9TFloatRecEPKvNS0_11TFloatValueEii
 0005:00001B3C       System.SysUtils.$pdata$_ZN6System8Sysutils14FSEnumEraNamesEPw
 0005:00002094       System.SysUtils.$pdata$_ZN6System8Sysutils14GetLocaleDataWEjj
 0005:00001EA8       System.SysUtils.$pdata$_ZN6System8Sysutils14InitExceptionsEv
 0005:0000228C       System.SysUtils.$pdata$_ZN6System8Sysutils14initializationEv
 0005:00001F74       System.SysUtils.$pdata$_ZN6System8Sysutils14InitPlatformIdEv
 0005:00002058       System.SysUtils.$pdata$_ZN6System8Sysutils14ModuleUnloadedEy
 0005:0000204C       System.SysUtils.$pdata$_ZN6System8Sysutils15ClearHashTablesEv
 0005:0000177C       System.SysUtils.$pdata$_ZN6System8Sysutils15ConvertErrorFmtEPNS_13TResStringRecEPKNS_7TVarRecEi
 0005:000018B4       System.SysUtils.$pdata$_ZN6System8Sysutils15ExtractFileNameENS_13UnicodeStringE
 0005:00001B0C       System.SysUtils.$pdata$_ZN6System8Sysutils15TFormatSettings11GetDayNamesEjRS1_
 0005:00001B24       System.SysUtils.$pdata$_ZN6System8Sysutils15TFormatSettings13GetMonthNamesEjRS1_
 0005:00001B00       System.SysUtils.$pdata$_ZN6System8Sysutils15TFormatSettings16AdjustLocaleNameENS_13UnicodeStringES2_
 0005:00001BC0       System.SysUtils.$pdata$_ZN6System8Sysutils15TFormatSettings16GetEraYearOffsetENS_13UnicodeStringE
 0005:00001B6C       System.SysUtils.$pdata$_ZN6System8Sysutils15TFormatSettings17GetEraInformationEjRS1_
 0005:00001BA8       System.SysUtils.$pdata$_ZN6System8Sysutils15TFormatSettings19TranslateDateFormatEjiNS_13UnicodeStringEw
 0005:00001AB8       System.SysUtils.$pdata$_ZN6System8Sysutils15TFormatSettings6CreateEj
 0005:00001AD0       System.SysUtils.$pdata$_ZN6System8Sysutils15TFormatSettings6CreateENS_13UnicodeStringE
 0005:00001AE8       System.SysUtils.$pdata$_ZN6System8Sysutils15TFormatSettings6CreateEv
 0005:00001B90       System.SysUtils.$pdata$_ZN6System8Sysutils15TFormatSettings9GetStringEjiiPKPvi
 0005:00001AF4       System.SysUtils.$pdata$_ZN6System8Sysutils15TFormatSettings9InvariantEv
 0005:00001F2C       System.SysUtils.$pdata$_ZN6System8Sysutils15WaitOrSignalObjEPvS1_j
 0005:00001E0C       System.SysUtils.$pdata$_ZN6System8Sysutils16CreateInOutErrorEv
 0005:00001884       System.SysUtils.$pdata$_ZN6System8Sysutils17EnumStringModulesEyPv
 0005:00001E54       System.SysUtils.$pdata$_ZN6System8Sysutils17GetExceptionClassEPNS_16TExceptionRecordE
 0005:00001FF8       System.SysUtils.$pdata$_ZN6System8Sysutils17GetFormatSettingsEv
 0005:00001F80       System.SysUtils.$pdata$_ZN6System8Sysutils17GetProductVersionENS_13UnicodeStringERjS2_S2_
 0005:00002070       System.SysUtils.$pdata$_ZN6System8Sysutils17InitDriveSpacePtrEv
 0005:00001E90       System.SysUtils.$pdata$_ZN6System8Sysutils17RaiseExceptObjectEPNS_16TExceptionRecordE
 0005:00001A40       System.SysUtils.$pdata$_ZN6System8Sysutils17ValidateTimeStampENS0_10TTimeStampE
 0005:00001E24       System.SysUtils.$pdata$_ZN6System8Sysutils18AssertErrorHandlerENS_13UnicodeStringES1_iPv
 0005:00001F5C       System.SysUtils.$pdata$_ZN6System8Sysutils18DoneMonitorSupportEv
 0005:00001890       System.SysUtils.$pdata$_ZN6System8Sysutils18FindStringResourceEy
 0005:00002064       System.SysUtils.$pdata$_ZN6System8Sysutils18FreeTerminateProcsEv
 0005:00001E78       System.SysUtils.$pdata$_ZN6System8Sysutils18GetExceptionObjectEPNS_16TExceptionRecordE
 0005:00001F38       System.SysUtils.$pdata$_ZN6System8Sysutils18InitMonitorSupportEv
 0005:00001ED8       System.SysUtils.$pdata$_ZN6System8Sysutils18WaitForSyncWaitObjEPvj
 0005:00001800       System.SysUtils.$pdata$_ZN6System8Sysutils18_UInt32ToHexStringEjiiw
 0005:00001818       System.SysUtils.$pdata$_ZN6System8Sysutils18_UInt64ToHexStringEyiiw
 0005:00002010       System.SysUtils.$pdata$_ZN6System8Sysutils19ClearFormatSettingsEv
 0005:00002088       System.SysUtils.$pdata$_ZN6System8Sysutils19EnumLocalesCallbackEPw
 0005:000019E0       System.SysUtils.$pdata$_ZN6System8Sysutils19InternalFloatToTextEPhbPKvNS0_11TFloatValueENS0_12TFloatFormatEiiRKNS0_15TFormatSettingsE
 0005:00001A4C       System.SysUtils.$pdata$_ZN6System8Sysutils19TimeStampToDateTimeENS0_10TTimeStampE
 0005:00001E3C       System.SysUtils.$pdata$_ZN6System8Sysutils20AbstractErrorHandlerEv
 0005:00001B54       System.SysUtils.$pdata$_ZN6System8Sysutils20FSEnumEraYearOffsetsEPw
 0005:00001BD8       System.SysUtils.$pdata$_ZN6System8Sysutils21ExceptionErrorMessageEPNS_7TObjectEPvPwi
 0005:00001F68       System.SysUtils.$pdata$_ZN6System8Sysutils21GetNetWkstaMajorMinorERjS1_
 0005:000018C0       System.SysUtils.$pdata$_ZN6System8Sysutils26BackfillGetDiskFreeSpaceExEPwRxS2_Px
 0005:00001A94       System.SysUtils.$pdata$_ZN6System8Sysutils3NowEv
 0005:00001EF0       System.SysUtils.$pdata$_ZN6System8Sysutils3PopERPNS0_16TEventItemHolderE
 0005:00001EE4       System.SysUtils.$pdata$_ZN6System8Sysutils4PushERPNS0_16TEventItemHolderES2_
 0005:00001950       System.SysUtils.$pdata$_ZN6System8Sysutils6FmtStrERNS_13UnicodeStringES1_PKNS_7TVarRecEiRKNS0_15TFormatSettingsE
 0005:00001938       System.SysUtils.$pdata$_ZN6System8Sysutils6FormatENS_13UnicodeStringEPKNS_7TVarRecEi
 0005:00001944       System.SysUtils.$pdata$_ZN6System8Sysutils6FormatENS_13UnicodeStringEPKNS_7TVarRecEiRKNS0_15TFormatSettingsE
 0005:000018CC       System.SysUtils.$pdata$_ZN6System8Sysutils6StrEndEPKw
 0005:000018FC       System.SysUtils.$pdata$_ZN6System8Sysutils6StrPosEPKwS2_
 0005:000018A8       System.SysUtils.$pdata$_ZN6System8Sysutils7LoadStrEy
 0005:00001920       System.SysUtils.$pdata$_ZN6System8Sysutils7StrLFmtEPwjS1_PKNS_7TVarRecEi
 0005:0000192C       System.SysUtils.$pdata$_ZN6System8Sysutils7StrLFmtEPwjS1_PKNS_7TVarRecEiRKNS0_15TFormatSettingsE
 0005:000018D8       System.SysUtils.$pdata$_ZN6System8Sysutils7StrMoveEPwPKwj
 0005:00002040       System.SysUtils.$pdata$_ZN6System8Sysutils8HashNameEPc
 0005:00001848       System.SysUtils.$pdata$_ZN6System8Sysutils8IntToHexEii
 0005:00001854       System.SysUtils.$pdata$_ZN6System8Sysutils8IntToHexExi
 0005:000017D0       System.SysUtils.$pdata$_ZN6System8Sysutils8IntToStrEi
 0005:000017DC       System.SysUtils.$pdata$_ZN6System8Sysutils8IntToStrEx
 0005:000018E4       System.SysUtils.$pdata$_ZN6System8Sysutils8StrLCopyEPwPKwj
 0005:000018F0       System.SysUtils.$pdata$_ZN6System8Sysutils8StrRScanEPKww
 0005:00001860       System.SysUtils.$pdata$_ZN6System8Sysutils8StrToIntENS_13UnicodeStringE
 0005:00001DDC       System.SysUtils.$pdata$_ZN6System8Sysutils9Exception12SetStackInfoEPv
 0005:00001DA0       System.SysUtils.$pdata$_ZN6System8Sysutils9Exception13GetStackTraceEv
 0005:00001D94       System.SysUtils.$pdata$_ZN6System8Sysutils9Exception16GetBaseExceptionEv
 0005:00001DC4       System.SysUtils.$pdata$_ZN6System8Sysutils9Exception16RaisingExceptionEPNS_16TExceptionRecordE
 0005:00001DD0       System.SysUtils.$pdata$_ZN6System8Sysutils9Exception17SetInnerExceptionEv
 0005:00001DAC       System.SysUtils.$pdata$_ZN6System8Sysutils9Exception19RaiseOuterExceptionEPS1_
 0005:00001DB8       System.SysUtils.$pdata$_ZN6System8Sysutils9Exception19ThrowOuterExceptionEPS1_
 0005:00001DE8       System.SysUtils.$pdata$_ZN6System8Sysutils9Exception8ToStringEv
 0005:00001C08       System.SysUtils.$pdata$_ZN6System8Sysutils9ExceptionC3ENS_13UnicodeStringE
 0005:00001CC8       System.SysUtils.$pdata$_ZN6System8Sysutils9ExceptionC3ENS_13UnicodeStringEi
 0005:00001C20       System.SysUtils.$pdata$_ZN6System8Sysutils9ExceptionC3ENS_13UnicodeStringEPKNS_7TVarRecEi
 0005:00001CE0       System.SysUtils.$pdata$_ZN6System8Sysutils9ExceptionC3ENS_13UnicodeStringEPKNS_7TVarRecEii
 0005:00001C68       System.SysUtils.$pdata$_ZN6System8Sysutils9ExceptionC3EPNS_13TResStringRecE
 0005:00001D28       System.SysUtils.$pdata$_ZN6System8Sysutils9ExceptionC3EPNS_13TResStringRecEi
 0005:00001CA4       System.SysUtils.$pdata$_ZN6System8Sysutils9ExceptionC3EPNS_13TResStringRecEPKNS_7TVarRecEi
 0005:00001D64       System.SysUtils.$pdata$_ZN6System8Sysutils9ExceptionC3EPNS_13TResStringRecEPKNS_7TVarRecEii
 0005:00001C44       System.SysUtils.$pdata$_ZN6System8Sysutils9ExceptionC3Ey
 0005:00001D04       System.SysUtils.$pdata$_ZN6System8Sysutils9ExceptionC3Eyi
 0005:00001C80       System.SysUtils.$pdata$_ZN6System8Sysutils9ExceptionC3EyPKNS_7TVarRecEi
 0005:00001D40       System.SysUtils.$pdata$_ZN6System8Sysutils9ExceptionC3EyPKNS_7TVarRecEii
 0005:00001D88       System.SysUtils.$pdata$_ZN6System8Sysutils9ExceptionD0Ev
 0005:00001EC0       System.SysUtils.$pdata$_ZN6System8Sysutils9Exceptionv04cctrEv
 0005:00001ECC       System.SysUtils.$pdata$_ZN6System8Sysutils9Exceptionv04cdtrEv
 0005:00001914       System.SysUtils.$pdata$_ZN6System8Sysutils9FormatBufEPwjPKvjPKNS_7TVarRecEiRKNS0_15TFormatSettingsE
 0005:0000219C       System.SysUtils.$pdata$_ZN6System8Sysutils9LanguagesEv
 0005:000017E8       System.SysUtils.$pdata$_ZN6System8Sysutils9UIntToStrEj
 0005:000017F4       System.SysUtils.$pdata$_ZN6System8Sysutils9UIntToStrEy
 0005:00002250       System.SysUtils.$pdata$_ZZN6System8Sysutils10TOSVersionv04cctrEvE15IsWindowsServerPv
 0005:00001FE0       System.SysUtils.$pdata$_ZZN6System8Sysutils13InitSysLocaleEvE13InitLeadBytesPv
 0005:0000195C       System.SysUtils.$pdata$_ZZN6System8Sysutils13WideFormatBufEPvjPKvjPKNS_7TVarRecEiRKNS0_15TFormatSettingsEE10ApplyWidthS1_ii
 0005:00001974       System.SysUtils.$pdata$_ZZN6System8Sysutils13WideFormatBufEPvjPKvjPKNS_7TVarRecEiRKNS0_15TFormatSettingsEE22VariantToUnicodeStringS1_RK8TVarData
 0005:00001968       System.SysUtils.$pdata$_ZZN6System8Sysutils13WideFormatBufEPvjPKvjPKNS_7TVarRecEiRKNS0_15TFormatSettingsEE6AddBufS1_PKwii
 0005:00001A04       System.SysUtils.$pdata$_ZZN6System8Sysutils14FloatToDecimalERNS0_9TFloatRecEPKvNS0_11TFloatValueEiiE11GetBcdBytesPve
 0005:00001A10       System.SysUtils.$pdata$_ZZN6System8Sysutils14FloatToDecimalERNS0_9TFloatRecEPKvNS0_11TFloatValueEiiE12ExtToDecimalPve
 0005:00001A1C       System.SysUtils.$pdata$_ZZN6System8Sysutils14FloatToDecimalERNS0_9TFloatRecEPKvNS0_11TFloatValueEiiE13CurrToDecimalPvNS_8CurrencyE
 0005:00001B9C       System.SysUtils.$pdata$_ZZN6System8Sysutils15TFormatSettings19TranslateDateFormatEjiNS_13UnicodeStringEwE16FixDateSeparatorPvRS2_
 0005:00001F44       System.SysUtils.$pdata$_ZZN6System8Sysutils18DoneMonitorSupportEvE10CleanStackPvPNS0_16TEventItemHolderE
 0005:00001F50       System.SysUtils.$pdata$_ZZN6System8Sysutils18DoneMonitorSupportEvE14CleanEventListPvPNS0_14TSyncEventItemEi
 0005:00001E60       System.SysUtils.$pdata$_ZZN6System8Sysutils18GetExceptionObjectEPNS_16TExceptionRecordEE14CreateAVObjectPv
 0005:00001998       System.SysUtils.$pdata$_ZZN6System8Sysutils19InternalFloatToTextEPhbPKvNS0_11TFloatValueENS0_12TFloatFormatEiiRKNS0_15TFormatSettingsEE10AppendCharPvw
 0005:000019A4       System.SysUtils.$pdata$_ZZN6System8Sysutils19InternalFloatToTextEPhbPKvNS0_11TFloatValueENS0_12TFloatFormatEiiRKNS0_15TFormatSettingsEE12AppendStringPvNS_13UnicodeStringE
 0005:000019BC       System.SysUtils.$pdata$_ZZN6System8Sysutils19InternalFloatToTextEPhbPKvNS0_11TFloatValueENS0_12TFloatFormatEiiRKNS0_15TFormatSettingsEE12FormatNumberPv
 0005:000019C8       System.SysUtils.$pdata$_ZZN6System8Sysutils19InternalFloatToTextEPhbPKvNS0_11TFloatValueENS0_12TFloatFormatEiiRKNS0_15TFormatSettingsEE14FormatExponentPv
 0005:000019B0       System.SysUtils.$pdata$_ZZN6System8Sysutils19InternalFloatToTextEPhbPKvNS0_11TFloatValueENS0_12TFloatFormatEiiRKNS0_15TFormatSettingsEE8GetDigitPv
 0005:00001BCC       System.SysUtils.$pdata$_ZZN6System8Sysutils21ExceptionErrorMessageEPNS_7TObjectEPvPwiE11ConvertAddrS3_S3_
 0002:00004354       System.SysUtils.$unwind$_ZN6System8Sysutils10AnsiStrPosEPwS1_
 0002:0000434C       System.SysUtils.$unwind$_ZN6System8Sysutils10CharLengthENS_13UnicodeStringEi
 0002:00003078       System.SysUtils.$unwind$_ZN6System8Sysutils10CompareStrENS_13UnicodeStringES1_
 0002:00003908       System.SysUtils.$unwind$_ZN6System8Sysutils10EncodeDateEttt
 0002:000038E8       System.SysUtils.$unwind$_ZN6System8Sysutils10EncodeTimeEtttt
 0002:00004448       System.SysUtils.$unwind$_ZN6System8Sysutils10FreeAndNilEPv
 0002:000038F4       System.SysUtils.$unwind$_ZN6System8Sysutils10IsLeapYearEt
 0002:00004288       System.SysUtils.$unwind$_ZN6System8Sysutils10NewSyncObjEv
 0002:0000429C       System.SysUtils.$unwind$_ZN6System8Sysutils10NewWaitObjEv
 0002:00004528       System.SysUtils.$unwind$_ZN6System8Sysutils10TLanguages11GetLocaleIDEi
 0002:0000452C       System.SysUtils.$unwind$_ZN6System8Sysutils10TLanguages13GetLocaleNameEi
 0002:00004578       System.SysUtils.$unwind$_ZN6System8Sysutils10TLanguages15GetNameFromLCIDENS_13UnicodeStringE
 0002:00004468       System.SysUtils.$unwind$_ZN6System8Sysutils10TLanguages15LocalesCallbackEPw
 0002:00004584       System.SysUtils.$unwind$_ZN6System8Sysutils10TLanguages19GetLocaleIDFromNameENS_13UnicodeStringE
 0002:0000453C       System.SysUtils.$unwind$_ZN6System8Sysutils10TLanguages19GetNameFromLocaleIDEj
 0002:00004548       System.SysUtils.$unwind$_ZN6System8Sysutils10TLanguages25GetLocaleIDFromLocaleNameENS_13UnicodeStringE
 0002:000044F8       System.SysUtils.$unwind$_ZN6System8Sysutils10TLanguages5GetIDEi
 0002:000044F0       System.SysUtils.$unwind$_ZN6System8Sysutils10TLanguages6GetExtEi
 0002:00004534       System.SysUtils.$unwind$_ZN6System8Sysutils10TLanguages7GetNameEi
 0002:000045B4       System.SysUtils.$unwind$_ZN6System8Sysutils10TLanguages7IndexOfEj
 0002:000045C0       System.SysUtils.$unwind$_ZN6System8Sysutils10TLanguages7IndexOfENS_13UnicodeStringE
 0002:000044E4       System.SysUtils.$unwind$_ZN6System8Sysutils10TLanguages8GetCountEv
 0002:0000449C       System.SysUtils.$unwind$_ZN6System8Sysutils10TLanguagesC3Ev
 0002:000044D8       System.SysUtils.$unwind$_ZN6System8Sysutils10TLanguagesD0Ev
 0002:00002E3C       System.SysUtils.$unwind$_ZN6System8Sysutils10TLanguagesv04cctrEv
 0002:000045FC       System.SysUtils.$unwind$_ZN6System8Sysutils10TLanguagesv04cdtrEv
 0002:000046F0       System.SysUtils.$unwind$_ZN6System8Sysutils10TOSVersion5CheckEii
 0002:000046E4       System.SysUtils.$unwind$_ZN6System8Sysutils10TOSVersionv04cctrEv
 0002:00002ED0       System.SysUtils.$unwind$_ZN6System8Sysutils10TOSVersionv04cdtrEv
 0002:00003080       System.SysUtils.$unwind$_ZN6System8Sysutils11CompareTextENS_13UnicodeStringES1_
 0002:00003860       System.SysUtils.$unwind$_ZN6System8Sysutils11FloatToTextEPwPKvNS0_11TFloatValueENS0_12TFloatFormatEiiRKNS0_15TFormatSettingsE
 0002:00003710       System.SysUtils.$unwind$_ZN6System8Sysutils11FormatErrorEiPwj
 0002:00004294       System.SysUtils.$unwind$_ZN6System8Sysutils11FreeSyncObjEPv
 0002:000042A4       System.SysUtils.$unwind$_ZN6System8Sysutils11FreeWaitObjEPv
 0002:00004344       System.SysUtils.$unwind$_ZN6System8Sysutils11StrByteTypeEPwj
 0002:00003590       System.SysUtils.$unwind$_ZN6System8Sysutils11StrToIntDefENS_13UnicodeStringEi
 0002:0000359C       System.SysUtils.$unwind$_ZN6System8Sysutils11TryStrToIntENS_13UnicodeStringERi
 0002:000034C0       System.SysUtils.$unwind$_ZN6System8Sysutils11_IntToStr32Ejb
 0002:000034D0       System.SysUtils.$unwind$_ZN6System8Sysutils11_IntToStr64Eyb
 0002:0000435C       System.SysUtils.$unwind$_ZN6System8Sysutils12AnsiStrRScanEPww
 0002:00002ED8       System.SysUtils.$unwind$_ZN6System8Sysutils12ConvertErrorEPNS_13TResStringRecE
 0002:00004168       System.SysUtils.$unwind$_ZN6System8Sysutils12ErrorHandlerEhPv
 0002:000046F4       System.SysUtils.$unwind$_ZN6System8Sysutils12FinalizationEv
 0002:00003A50       System.SysUtils.$unwind$_ZN6System8Sysutils12GetLocaleStrEiiNS_13UnicodeStringE
 0002:000043F4       System.SysUtils.$unwind$_ZN6System8Sysutils12HashNameMBCSEPc
 0002:000041A8       System.SysUtils.$unwind$_ZN6System8Sysutils12MapExceptionEPNS_16TExceptionRecordE
 0002:00003560       System.SysUtils.$unwind$_ZN6System8Sysutils12_UIntToHex32Eji
 0002:00003568       System.SysUtils.$unwind$_ZN6System8Sysutils12_UIntToHex64Eyi
 0002:00003094       System.SysUtils.$unwind$_ZN6System8Sysutils13AnsiLowerCaseENS_13UnicodeStringE
 0002:00003088       System.SysUtils.$unwind$_ZN6System8Sysutils13AnsiUpperCaseENS_13UnicodeStringE
 0002:00004228       System.SysUtils.$unwind$_ZN6System8Sysutils13ExceptHandlerEPNS_7TObjectEPv
 0002:00003A60       System.SysUtils.$unwind$_ZN6System8Sysutils13GetLocaleCharEiiw
 0002:00004370       System.SysUtils.$unwind$_ZN6System8Sysutils13InitSysLocaleEv
 0002:00003D1C       System.SysUtils.$unwind$_ZN6System8Sysutils13ShowExceptionEPNS_7TObjectEPv
 0002:00004348       System.SysUtils.$unwind$_ZN6System8Sysutils13StrCharLengthEPKw
 0002:000043B8       System.SysUtils.$unwind$_ZN6System8Sysutils13StringReplaceENS_13UnicodeStringES1_S1_NS_3SetINS0_19System_Sysutils__85ELS3_0ELS3_1EEE
 0002:000038F8       System.SysUtils.$unwind$_ZN6System8Sysutils13TryEncodeDateEtttRNS_9TDateTimeE
 0002:000038DC       System.SysUtils.$unwind$_ZN6System8Sysutils13TryEncodeTimeEttttRNS_9TDateTimeE
 0002:00004698       System.SysUtils.$unwind$_ZN6System8Sysutils13TStringHelper11ToCharArrayEii
 0002:00004690       System.SysUtils.$unwind$_ZN6System8Sysutils13TStringHelper11ToCharArrayEv
 0002:0000464C       System.SysUtils.$unwind$_ZN6System8Sysutils13TStringHelper13LastDelimiterENS_13UnicodeStringE
 0002:00004618       System.SysUtils.$unwind$_ZN6System8Sysutils13TStringHelper15InternalCompareENS_13UnicodeStringEiS2_iiibj
 0002:0000462C       System.SysUtils.$unwind$_ZN6System8Sysutils13TStringHelper15InternalCompareENS_13UnicodeStringEiS2_iiiNS_3SetINS0_14TCompareOptionELS4_0ELS4_9EEEj
 0002:00004620       System.SysUtils.$unwind$_ZN6System8Sysutils13TStringHelper25InternalMapOptionsToFlagsENS_3SetINS0_14TCompareOptionELS3_0ELS3_9EEE
 0002:00004640       System.SysUtils.$unwind$_ZN6System8Sysutils13TStringHelper6CreateEPKwi
 0002:00004610       System.SysUtils.$unwind$_ZN6System8Sysutils13TStringHelper7CompareENS_13UnicodeStringEiS2_iib
 0002:00004638       System.SysUtils.$unwind$_ZN6System8Sysutils13TStringHelper7CompareENS_13UnicodeStringEiS2_iibj
 0002:00004650       System.SysUtils.$unwind$_ZN6System8Sysutils13TStringHelper7ReplaceEww
 0002:0000460C       System.SysUtils.$unwind$_ZN6System8Sysutils13TStringHelper9GetLengthEv
 0002:00004680       System.SysUtils.$unwind$_ZN6System8Sysutils13TStringHelper9SubstringEi
 0002:00004688       System.SysUtils.$unwind$_ZN6System8Sysutils13TStringHelper9SubstringEii
 0002:00003790       System.SysUtils.$unwind$_ZN6System8Sysutils13WideFormatBufEPvjPKvjPKNS_7TVarRecEiRKNS0_15TFormatSettingsE
 0002:00004238       System.SysUtils.$unwind$_ZN6System8Sysutils14DoneExceptionsEv
 0002:0000414C       System.SysUtils.$unwind$_ZN6System8Sysutils14EHeapException12FreeInstanceEv
 0002:00004154       System.SysUtils.$unwind$_ZN6System8Sysutils14EHeapException16RaisingExceptionEPNS_16TExceptionRecordE
 0002:000038BC       System.SysUtils.$unwind$_ZN6System8Sysutils14FloatToDecimalERNS0_9TFloatRecEPKvNS0_11TFloatValueEii
 0002:00003B5C       System.SysUtils.$unwind$_ZN6System8Sysutils14FSEnumEraNamesEPw
 0002:00004458       System.SysUtils.$unwind$_ZN6System8Sysutils14GetLocaleDataWEjj
 0002:00004230       System.SysUtils.$unwind$_ZN6System8Sysutils14InitExceptionsEv
 0002:00004720       System.SysUtils.$unwind$_ZN6System8Sysutils14initializationEv
 0002:000042F0       System.SysUtils.$unwind$_ZN6System8Sysutils14InitPlatformIdEv
 0002:00004418       System.SysUtils.$unwind$_ZN6System8Sysutils14ModuleUnloadedEy
 0002:00004410       System.SysUtils.$unwind$_ZN6System8Sysutils15ClearHashTablesEv
 0002:00002EE0       System.SysUtils.$unwind$_ZN6System8Sysutils15ConvertErrorFmtEPNS_13TResStringRecEPKNS_7TVarRecEi
 0002:000036D0       System.SysUtils.$unwind$_ZN6System8Sysutils15ExtractFileNameENS_13UnicodeStringE
 0002:00003AF0       System.SysUtils.$unwind$_ZN6System8Sysutils15TFormatSettings11GetDayNamesEjRS1_
 0002:00003B28       System.SysUtils.$unwind$_ZN6System8Sysutils15TFormatSettings13GetMonthNamesEjRS1_
 0002:00003AE8       System.SysUtils.$unwind$_ZN6System8Sysutils15TFormatSettings16AdjustLocaleNameENS_13UnicodeStringES2_
 0002:00003C58       System.SysUtils.$unwind$_ZN6System8Sysutils15TFormatSettings16GetEraYearOffsetENS_13UnicodeStringE
 0002:00003BB8       System.SysUtils.$unwind$_ZN6System8Sysutils15TFormatSettings17GetEraInformationEjRS1_
 0002:00003C24       System.SysUtils.$unwind$_ZN6System8Sysutils15TFormatSettings19TranslateDateFormatEjiNS_13UnicodeStringEw
 0002:00003A6C       System.SysUtils.$unwind$_ZN6System8Sysutils15TFormatSettings6CreateEj
 0002:00003A9C       System.SysUtils.$unwind$_ZN6System8Sysutils15TFormatSettings6CreateENS_13UnicodeStringE
 0002:00003AD0       System.SysUtils.$unwind$_ZN6System8Sysutils15TFormatSettings6CreateEv
 0002:00003C08       System.SysUtils.$unwind$_ZN6System8Sysutils15TFormatSettings9GetStringEjiiPKPvi
 0002:00003AD8       System.SysUtils.$unwind$_ZN6System8Sysutils15TFormatSettings9InvariantEv
 0002:000042AC       System.SysUtils.$unwind$_ZN6System8Sysutils15WaitOrSignalObjEPvS1_j
 0002:0000415C       System.SysUtils.$unwind$_ZN6System8Sysutils16CreateInOutErrorEv
 0002:00003688       System.SysUtils.$unwind$_ZN6System8Sysutils17EnumStringModulesEyPv
 0002:000041AC       System.SysUtils.$unwind$_ZN6System8Sysutils17GetExceptionClassEPNS_16TExceptionRecordE
 0002:00004380       System.SysUtils.$unwind$_ZN6System8Sysutils17GetFormatSettingsEv
 0002:000042F8       System.SysUtils.$unwind$_ZN6System8Sysutils17GetProductVersionENS_13UnicodeStringERjS2_S2_
 0002:00004440       System.SysUtils.$unwind$_ZN6System8Sysutils17InitDriveSpacePtrEv
 0002:0000421C       System.SysUtils.$unwind$_ZN6System8Sysutils17RaiseExceptObjectEPNS_16TExceptionRecordE
 0002:000038C8       System.SysUtils.$unwind$_ZN6System8Sysutils17ValidateTimeStampENS0_10TTimeStampE
 0002:00004170       System.SysUtils.$unwind$_ZN6System8Sysutils18AssertErrorHandlerENS_13UnicodeStringES1_iPv
 0002:000042D4       System.SysUtils.$unwind$_ZN6System8Sysutils18DoneMonitorSupportEv
 0002:00003698       System.SysUtils.$unwind$_ZN6System8Sysutils18FindStringResourceEy
 0002:00004438       System.SysUtils.$unwind$_ZN6System8Sysutils18FreeTerminateProcsEv
 0002:000041E8       System.SysUtils.$unwind$_ZN6System8Sysutils18GetExceptionObjectEPNS_16TExceptionRecordE
 0002:000042B4       System.SysUtils.$unwind$_ZN6System8Sysutils18InitMonitorSupportEv
 0002:00004250       System.SysUtils.$unwind$_ZN6System8Sysutils18WaitForSyncWaitObjEPvj
 0002:00003500       System.SysUtils.$unwind$_ZN6System8Sysutils18_UInt32ToHexStringEjiiw
 0002:00003530       System.SysUtils.$unwind$_ZN6System8Sysutils18_UInt64ToHexStringEyiiw
 0002:000043B4       System.SysUtils.$unwind$_ZN6System8Sysutils19ClearFormatSettingsEv
 0002:00004450       System.SysUtils.$unwind$_ZN6System8Sysutils19EnumLocalesCallbackEPw
 0002:0000382C       System.SysUtils.$unwind$_ZN6System8Sysutils19InternalFloatToTextEPhbPKvNS0_11TFloatValueENS0_12TFloatFormatEiiRKNS0_15TFormatSettingsE
 0002:000038D4       System.SysUtils.$unwind$_ZN6System8Sysutils19TimeStampToDateTimeENS0_10TTimeStampE
 0002:000041A0       System.SysUtils.$unwind$_ZN6System8Sysutils20AbstractErrorHandlerEv
 0002:00003B88       System.SysUtils.$unwind$_ZN6System8Sysutils20FSEnumEraYearOffsetsEPw
 0002:00003CE4       System.SysUtils.$unwind$_ZN6System8Sysutils21ExceptionErrorMessageEPNS_7TObjectEPvPwi
 0002:000042E0       System.SysUtils.$unwind$_ZN6System8Sysutils21GetNetWkstaMajorMinorERjS1_
 0002:000036D8       System.SysUtils.$unwind$_ZN6System8Sysutils26BackfillGetDiskFreeSpaceExEPwRxS2_Px
 0002:00003914       System.SysUtils.$unwind$_ZN6System8Sysutils3NowEv
 0002:00004284       System.SysUtils.$unwind$_ZN6System8Sysutils3PopERPNS0_16TEventItemHolderE
 0002:00004280       System.SysUtils.$unwind$_ZN6System8Sysutils4PushERPNS0_16TEventItemHolderES2_
 0002:00003750       System.SysUtils.$unwind$_ZN6System8Sysutils6FmtStrERNS_13UnicodeStringES1_PKNS_7TVarRecEiRKNS0_15TFormatSettingsE
 0002:00003740       System.SysUtils.$unwind$_ZN6System8Sysutils6FormatENS_13UnicodeStringEPKNS_7TVarRecEi
 0002:00003748       System.SysUtils.$unwind$_ZN6System8Sysutils6FormatENS_13UnicodeStringEPKNS_7TVarRecEiRKNS0_15TFormatSettingsE
 0002:000036E8       System.SysUtils.$unwind$_ZN6System8Sysutils6StrEndEPKw
 0002:0000370C       System.SysUtils.$unwind$_ZN6System8Sysutils6StrPosEPKwS2_
 0002:000036C8       System.SysUtils.$unwind$_ZN6System8Sysutils7LoadStrEy
 0002:00003728       System.SysUtils.$unwind$_ZN6System8Sysutils7StrLFmtEPwjS1_PKNS_7TVarRecEi
 0002:00003730       System.SysUtils.$unwind$_ZN6System8Sysutils7StrLFmtEPwjS1_PKNS_7TVarRecEiRKNS0_15TFormatSettingsE
 0002:000036EC       System.SysUtils.$unwind$_ZN6System8Sysutils7StrMoveEPwPKwj
 0002:00004408       System.SysUtils.$unwind$_ZN6System8Sysutils8HashNameEPc
 0002:00003570       System.SysUtils.$unwind$_ZN6System8Sysutils8IntToHexEii
 0002:00003578       System.SysUtils.$unwind$_ZN6System8Sysutils8IntToHexExi
 0002:000034E0       System.SysUtils.$unwind$_ZN6System8Sysutils8IntToStrEi
 0002:000034E8       System.SysUtils.$unwind$_ZN6System8Sysutils8IntToStrEx
 0002:000036F4       System.SysUtils.$unwind$_ZN6System8Sysutils8StrLCopyEPwPKwj
 0002:00003704       System.SysUtils.$unwind$_ZN6System8Sysutils8StrRScanEPKww
 0002:00003580       System.SysUtils.$unwind$_ZN6System8Sysutils8StrToIntENS_13UnicodeStringE
 0002:0000413C       System.SysUtils.$unwind$_ZN6System8Sysutils9Exception12SetStackInfoEPv
 0002:00004110       System.SysUtils.$unwind$_ZN6System8Sysutils9Exception13GetStackTraceEv
 0002:0000410C       System.SysUtils.$unwind$_ZN6System8Sysutils9Exception16GetBaseExceptionEv
 0002:00004128       System.SysUtils.$unwind$_ZN6System8Sysutils9Exception16RaisingExceptionEPNS_16TExceptionRecordE
 0002:00004134       System.SysUtils.$unwind$_ZN6System8Sysutils9Exception17SetInnerExceptionEv
 0002:00004118       System.SysUtils.$unwind$_ZN6System8Sysutils9Exception19RaiseOuterExceptionEPS1_
 0002:00004120       System.SysUtils.$unwind$_ZN6System8Sysutils9Exception19ThrowOuterExceptionEPS1_
 0002:00004140       System.SysUtils.$unwind$_ZN6System8Sysutils9Exception8ToStringEv
 0002:00003D50       System.SysUtils.$unwind$_ZN6System8Sysutils9ExceptionC3ENS_13UnicodeStringE
 0002:00003F28       System.SysUtils.$unwind$_ZN6System8Sysutils9ExceptionC3ENS_13UnicodeStringEi
 0002:00003D8C       System.SysUtils.$unwind$_ZN6System8Sysutils9ExceptionC3ENS_13UnicodeStringEPKNS_7TVarRecEi
 0002:00003F64       System.SysUtils.$unwind$_ZN6System8Sysutils9ExceptionC3ENS_13UnicodeStringEPKNS_7TVarRecEii
 0002:00003E3C       System.SysUtils.$unwind$_ZN6System8Sysutils9ExceptionC3EPNS_13TResStringRecE
 0002:00004014       System.SysUtils.$unwind$_ZN6System8Sysutils9ExceptionC3EPNS_13TResStringRecEi
 0002:00003ED0       System.SysUtils.$unwind$_ZN6System8Sysutils9ExceptionC3EPNS_13TResStringRecEPKNS_7TVarRecEi
 0002:000040A8       System.SysUtils.$unwind$_ZN6System8Sysutils9ExceptionC3EPNS_13TResStringRecEPKNS_7TVarRecEii
 0002:00003DE4       System.SysUtils.$unwind$_ZN6System8Sysutils9ExceptionC3Ey
 0002:00003FBC       System.SysUtils.$unwind$_ZN6System8Sysutils9ExceptionC3Eyi
 0002:00003E78       System.SysUtils.$unwind$_ZN6System8Sysutils9ExceptionC3EyPKNS_7TVarRecEi
 0002:00004050       System.SysUtils.$unwind$_ZN6System8Sysutils9ExceptionC3EyPKNS_7TVarRecEii
 0002:00004100       System.SysUtils.$unwind$_ZN6System8Sysutils9ExceptionD0Ev
 0002:00004240       System.SysUtils.$unwind$_ZN6System8Sysutils9Exceptionv04cctrEv
 0002:00004248       System.SysUtils.$unwind$_ZN6System8Sysutils9Exceptionv04cdtrEv
 0002:00003720       System.SysUtils.$unwind$_ZN6System8Sysutils9FormatBufEPwjPKvjPKNS_7TVarRecEiRKNS0_15TFormatSettingsE
 0002:00004604       System.SysUtils.$unwind$_ZN6System8Sysutils9LanguagesEv
 0002:000034F0       System.SysUtils.$unwind$_ZN6System8Sysutils9UIntToStrEj
 0002:000034F8       System.SysUtils.$unwind$_ZN6System8Sysutils9UIntToStrEy
 0002:000046D8       System.SysUtils.$unwind$_ZZN6System8Sysutils10TOSVersionv04cctrEvE15IsWindowsServerPv
 0002:00004364       System.SysUtils.$unwind$_ZZN6System8Sysutils13InitSysLocaleEvE13InitLeadBytesPv
 0002:00003764       System.SysUtils.$unwind$_ZZN6System8Sysutils13WideFormatBufEPvjPKvjPKNS_7TVarRecEiRKNS0_15TFormatSettingsEE10ApplyWidthS1_ii
 0002:00003780       System.SysUtils.$unwind$_ZZN6System8Sysutils13WideFormatBufEPvjPKvjPKNS_7TVarRecEiRKNS0_15TFormatSettingsEE22VariantToUnicodeStringS1_RK8TVarData
 0002:0000376C       System.SysUtils.$unwind$_ZZN6System8Sysutils13WideFormatBufEPvjPKvjPKNS_7TVarRecEiRKNS0_15TFormatSettingsEE6AddBufS1_PKwii
 0002:00003868       System.SysUtils.$unwind$_ZZN6System8Sysutils14FloatToDecimalERNS0_9TFloatRecEPKvNS0_11TFloatValueEiiE11GetBcdBytesPve
 0002:00003878       System.SysUtils.$unwind$_ZZN6System8Sysutils14FloatToDecimalERNS0_9TFloatRecEPKvNS0_11TFloatValueEiiE12ExtToDecimalPve
 0002:00003884       System.SysUtils.$unwind$_ZZN6System8Sysutils14FloatToDecimalERNS0_9TFloatRecEPKvNS0_11TFloatValueEiiE13CurrToDecimalPvNS_8CurrencyE
 0002:00003C14       System.SysUtils.$unwind$_ZZN6System8Sysutils15TFormatSettings19TranslateDateFormatEjiNS_13UnicodeStringEwE16FixDateSeparatorPvRS2_
 0002:000042B8       System.SysUtils.$unwind$_ZZN6System8Sysutils18DoneMonitorSupportEvE10CleanStackPvPNS0_16TEventItemHolderE
 0002:000042C4       System.SysUtils.$unwind$_ZZN6System8Sysutils18DoneMonitorSupportEvE14CleanEventListPvPNS0_14TSyncEventItemEi
 0002:000041B4       System.SysUtils.$unwind$_ZZN6System8Sysutils18GetExceptionObjectEPNS_16TExceptionRecordEE14CreateAVObjectPv
 0002:000037C8       System.SysUtils.$unwind$_ZZN6System8Sysutils19InternalFloatToTextEPhbPKvNS0_11TFloatValueENS0_12TFloatFormatEiiRKNS0_15TFormatSettingsEE10AppendCharPvw
 0002:000037D0       System.SysUtils.$unwind$_ZZN6System8Sysutils19InternalFloatToTextEPhbPKvNS0_11TFloatValueENS0_12TFloatFormatEiiRKNS0_15TFormatSettingsEE12AppendStringPvNS_13UnicodeStringE
 0002:000037E8       System.SysUtils.$unwind$_ZZN6System8Sysutils19InternalFloatToTextEPhbPKvNS0_11TFloatValueENS0_12TFloatFormatEiiRKNS0_15TFormatSettingsEE12FormatNumberPv
 0002:000037F8       System.SysUtils.$unwind$_ZZN6System8Sysutils19InternalFloatToTextEPhbPKvNS0_11TFloatValueENS0_12TFloatFormatEiiRKNS0_15TFormatSettingsEE14FormatExponentPv
 0002:000037E0       System.SysUtils.$unwind$_ZZN6System8Sysutils19InternalFloatToTextEPhbPKvNS0_11TFloatValueENS0_12TFloatFormatEiiRKNS0_15TFormatSettingsEE8GetDigitPv
 0002:00003CE0       System.SysUtils.$unwind$_ZZN6System8Sysutils21ExceptionErrorMessageEPNS_7TObjectEPvPwiE11ConvertAddrS3_S3_
 0003:00006518       System.SysUtils..17
 0001:0001AD18       System.SysUtils..EAbstractError
 0001:0001A5E0       System.SysUtils..EAccessViolation
 0001:0001ABE0       System.SysUtils..EAssertionFailed
 0001:0001A980       System.SysUtils..EControlC
 0001:0001A4A8       System.SysUtils..EConvertError
 0001:000198C8       System.SysUtils..EDivByZero
 0001:00019508       System.SysUtils..EExternal
 0001:00019660       System.SysUtils..EExternalException
 0001:000190E8       System.SysUtils..EHeapException
 0001:000193B8       System.SysUtils..EInOutError
 0001:000197A0       System.SysUtils..EIntError
 0001:0001AE50       System.SysUtils..EIntfCastError
 0001:00019B28       System.SysUtils..EIntOverflow
 0001:0001A378       System.SysUtils..EInvalidCast
 0001:00019D88       System.SysUtils..EInvalidOp
 0001:0001A240       System.SysUtils..EInvalidPointer
 0001:00019C58       System.SysUtils..EMathError
 0001:0001B0C8       System.SysUtils..EMonitor
 0001:0001B1F0       System.SysUtils..EMonitorLockException
 0001:0001B338       System.SysUtils..ENoMonitorSupportException
 0001:0001B488       System.SysUtils..ENotImplemented
 0001:0001B5C0       System.SysUtils..EObjectDisposed
 0001:00019288       System.SysUtils..EOutOfMemory
 0001:00019FE8       System.SysUtils..EOverflow
 0001:0001A718       System.SysUtils..EPrivilege
 0001:000199F8       System.SysUtils..ERangeError
 0001:0001AF88       System.SysUtils..ESafecallException
 0001:0001A848       System.SysUtils..EStackOverflow
 0001:0001A110       System.SysUtils..EUnderflow
 0001:0001AAA8       System.SysUtils..EVariantError
 0001:000186E8       System.SysUtils..Exception
 0001:00019EB8       System.SysUtils..EZeroDivide
 0001:00018040       System.SysUtils..TLanguages
 0001:000226A0       System.SysUtils.AbstractErrorHandler
 0001:0001D2F0       System.SysUtils.AddBuf
 0001:0001C170       System.SysUtils.AnsiLowerCase
 0001:00023460       System.SysUtils.AnsiStrPos
 0001:00023470       System.SysUtils.AnsiStrRScan
 0001:0001C120       System.SysUtils.AnsiUpperCase
 0001:0001E6B0       System.SysUtils.AppendChar
 0001:0001E700       System.SysUtils.AppendString
 0001:0001D250       System.SysUtils.ApplyWidth
 0001:00022520       System.SysUtils.AssertErrorHandler
 0001:0001CDC0       System.SysUtils.BackfillGetDiskFreeSpaceEx
 0002:000046B0       System.SysUtils.CArchitectures
 0002:000035E0       System.SysUtils.CCurrencyFormats
 0002:000046C8       System.SysUtils.CEditionStr
 0001:00023410       System.SysUtils.CharLength
 0001:00023030       System.SysUtils.CleanEventList
 0001:00022FF0       System.SysUtils.CleanStack
 0001:00023660       System.SysUtils.ClearFormatSettings
 0001:00024330       System.SysUtils.ClearHashTables
 0002:000035C4       System.SysUtils.CMinusSign
 0002:00003600       System.SysUtils.CNegCurrencyFormats
 0001:0001BF80       System.SysUtils.CompareStr
 0001:0001C030       System.SysUtils.CompareText
 0001:000212C0       System.SysUtils.ConvertAddr
 0001:0001BF10       System.SysUtils.ConvertError
 0001:0001BF40       System.SysUtils.ConvertErrorFmt
 0002:000035C6       System.SysUtils.CPlusSign
 0001:000227D0       System.SysUtils.CreateAVObject
 0001:000223F0       System.SysUtils.CreateInOutError
 0002:000035D0       System.SysUtils.CSpecial
 0001:0001F330       System.SysUtils.CurrToDecimal
 0002:000046B8       System.SysUtils.CVersionStr
 0002:000035C8       System.SysUtils.CZero
 0002:000035C0       System.SysUtils.DCon10
 0002:000046A8       System.SysUtils.DefaultFallbackLanguages
 0002:00003A18       System.SysUtils.DefLongDayNames
 0002:00003980       System.SysUtils.DefLongMonthNames
 0002:000039E0       System.SysUtils.DefShortDayNames
 0002:00003920       System.SysUtils.DefShortMonthNames
 0001:00022CE0       System.SysUtils.DoneExceptions
 0001:000230B0       System.SysUtils.DoneMonitorSupport
 0001:000223C0       System.SysUtils.EHeapException.FreeInstance
 0001:000223E0       System.SysUtils.EHeapException.RaisingException
 0002:00002E50       System.SysUtils.EmptyAnsiStr
 0002:00002E40       System.SysUtils.EmptyStr
 0002:00002E48       System.SysUtils.EmptyWideStr
 0001:0001F990       System.SysUtils.EncodeDate
 0001:0001F7F0       System.SysUtils.EncodeTime
 0001:00024600       System.SysUtils.EnumLocalesCallback
 0001:0001CC70       System.SysUtils.EnumStringModules
 0001:00022480       System.SysUtils.ErrorHandler
 0002:00003C70       System.SysUtils.ErrorMap
 0003:00006550       System.SysUtils.EventCache
 0003:00006758       System.SysUtils.EventItemHolders
 0001:00022BF0       System.SysUtils.ExceptHandler
 0003:00006328       System.SysUtils.Exception.$ClassInitFlag
 0003:00006340       System.SysUtils.Exception.CleanUpStackInfoProc
 0001:000216F0       System.SysUtils.Exception.Create
 0001:00022DA0       System.SysUtils.Exception.Create@
 0001:00021790       System.SysUtils.Exception.CreateFmt
 0001:00021CD0       System.SysUtils.Exception.CreateFmtHelp
 0001:00021C20       System.SysUtils.Exception.CreateHelp
 0001:00021880       System.SysUtils.Exception.CreateRes
 0001:00021960       System.SysUtils.Exception.CreateRes
 0001:00021B10       System.SysUtils.Exception.CreateResFmt
 0001:00021A00       System.SysUtils.Exception.CreateResFmt
 0001:00022090       System.SysUtils.Exception.CreateResFmtHelp
 0001:00021F70       System.SysUtils.Exception.CreateResFmtHelp
 0001:00021EC0       System.SysUtils.Exception.CreateResHelp
 0001:00021DD0       System.SysUtils.Exception.CreateResHelp
 0001:000221B0       System.SysUtils.Exception.Destroy
 0001:00022DC0       System.SysUtils.Exception.Destroy@
 0001:00022210       System.SysUtils.Exception.GetBaseException
 0003:00006330       System.SysUtils.Exception.GetExceptionStackInfoProc
 0003:00006338       System.SysUtils.Exception.GetStackInfoStringProc
 0001:00022230       System.SysUtils.Exception.GetStackTrace
 0001:00022270       System.SysUtils.Exception.RaiseOuterException
 0001:000222B0       System.SysUtils.Exception.RaisingException
 0001:000222F0       System.SysUtils.Exception.SetInnerException
 0001:00022330       System.SysUtils.Exception.SetStackInfo
 0001:00022290       System.SysUtils.Exception.ThrowOuterException
 0001:00022340       System.SysUtils.Exception.ToString
 0001:000212D0       System.SysUtils.ExceptionErrorMessage
 0001:0001CD70       System.SysUtils.ExtractFileName
 0001:0001F030       System.SysUtils.ExtToDecimal
 0003:000064E8       System.SysUtils.FalseBoolStrs
 0002:000035B8       System.SysUtils.FCon1E18
 0001:00025DD0       System.SysUtils.Finalization
 0001:0001CCC0       System.SysUtils.FindStringResource
 0001:00020D50       System.SysUtils.FixDateSeparator
 0003:0000A730       System.SysUtils.FLanguages
 0001:0001F680       System.SysUtils.FloatToDecimal
 0001:0001EF20       System.SysUtils.FloatToText
 0002:00003680       System.SysUtils.FMSecsPerDay
 0001:0001D110       System.SysUtils.FmtStr
 0001:0001D0B0       System.SysUtils.Format
 0001:0001D0E0       System.SysUtils.Format
 0001:0001CFE0       System.SysUtils.FormatBuf
 0001:0001CF60       System.SysUtils.FormatError
 0002:000035A8       System.SysUtils.FormatErrorStrs
 0001:0001E930       System.SysUtils.FormatExponent
 0001:0001E7F0       System.SysUtils.FormatNumber
 0003:00006358       System.SysUtils.FormatSettings
 0001:000245E0       System.SysUtils.FreeAndNil
 0001:00022EB0       System.SysUtils.FreeSyncObj
 0001:00024520       System.SysUtils.FreeTerminateProcs
 0001:00022F50       System.SysUtils.FreeWaitObj
 0001:000206D0       System.SysUtils.FSEnumEraNames
 0001:000207A0       System.SysUtils.FSEnumEraYearOffsets
 0004:00000228       System.SysUtils.FTempLanguages
 0003:00006528       System.SysUtils.GEraData
 0001:0001EF60       System.SysUtils.GetBcdBytes
 0001:0001E7C0       System.SysUtils.GetDigit
 0002:00002EC8       System.SysUtils.GetDiskFreeSpaceEx
 0001:000227A0       System.SysUtils.GetExceptionClass
 0001:00022A80       System.SysUtils.GetExceptionObject
 0001:000235D0       System.SysUtils.GetFormatSettings
 0001:0001FA80       System.SysUtils.GetLocaleChar
 0001:00024630       System.SysUtils.GetLocaleDataW
 0001:0001FA20       System.SysUtils.GetLocaleStr
 0001:00023120       System.SysUtils.GetNetWkstaMajorMinor
 0001:00023210       System.SysUtils.GetProductVersion
 0001:000242A0       System.SysUtils.HashName
 0001:000241C0       System.SysUtils.HashNameMBCS
 0002:00002EC0       System.SysUtils.HexDisplayPrefix
 0002:00003684       System.SysUtils.IMSecsPerDay
 0001:00024550       System.SysUtils.InitDriveSpacePtr
 0001:00022C10       System.SysUtils.InitExceptions
 0001:00023480       System.SysUtils.InitLeadBytes
 0001:00022FD0       System.SysUtils.InitMonitorSupport
 0001:000231A0       System.SysUtils.InitPlatformId
 0001:00023510       System.SysUtils.InitSysLocale
 0001:0001EA60       System.SysUtils.InternalFloatToText
 0003:00006538       System.SysUtils.InternalFormatSettingsLock
 0001:0001CB40       System.SysUtils.IntToHex
 0001:0001CB20       System.SysUtils.IntToHex
 0001:0001C6F0       System.SysUtils.IntToStr
 0001:0001C6C0       System.SysUtils.IntToStr
 0003:00006548       System.SysUtils.InvalidPointer
 0001:0001F830       System.SysUtils.IsLeapYear
 0001:000254B0       System.SysUtils.IsWindowsServer
 0003:0000A738       System.SysUtils.LanguageArray
 0001:00024F70       System.SysUtils.Languages
 0002:00002EA0       System.SysUtils.LeadBytes
 0001:0001CD50       System.SysUtils.LoadStr
 0001:000226D0       System.SysUtils.MapException
 0002:000045D4       System.SysUtils.MapFlags
 0001:00024380       System.SysUtils.ModuleUnloaded
 0002:00004258       System.SysUtils.MonitorSupport
 0002:00002E70       System.SysUtils.MonthDays
 0001:00023110       System.SysUtils.NetApiBufferFree
 0001:00023100       System.SysUtils.NetWkstaGetInfo100
 0001:00022E30       System.SysUtils.NewSyncObj
 0001:00022EF0       System.SysUtils.NewWaitObj
 0001:0001F9C0       System.SysUtils.Now
 0003:00006520       System.SysUtils.NTQueryObject
 0002:000034A0       System.SysUtils.OneHexLookup
 0003:00006540       System.SysUtils.OutOfMemory
 0001:00022E10       System.SysUtils.Pop
 0001:00022DF0       System.SysUtils.Push
 0001:00022BB0       System.SysUtils.RaiseExceptObject
 0001:00021520       System.SysUtils.ShowException
 0001:00023380       System.SysUtils.StrByteType
 0001:000233D0       System.SysUtils.StrCharLength
 0001:0001CE20       System.SysUtils.StrEnd
 0001:000236B0       System.SysUtils.StringReplace
 0001:0001CE60       System.SysUtils.StrLCopy
 0001:0001D010       System.SysUtils.StrLFmt
 0001:0001D040       System.SysUtils.StrLFmt
 0001:0001CE30       System.SysUtils.StrMove
 0001:0001CF00       System.SysUtils.StrPos
 0001:0001CEC0       System.SysUtils.StrRScan
 0001:0001CB60       System.SysUtils.StrToInt
 0001:0001CBB0       System.SysUtils.StrToIntDef
 0003:00006558       System.SysUtils.SyncEventCache
 0003:00006348       System.SysUtils.SysLocale
 0001:00025EF0       System.SysUtils.System.SysUtils
 0002:00004430       System.SysUtils.TerminateProcList
 0001:000203C0       System.SysUtils.TFormatSettings.AdjustLocaleName
 0001:00020080       System.SysUtils.TFormatSettings.Create
 0001:0001FAB0       System.SysUtils.TFormatSettings.Create
 0001:00020160       System.SysUtils.TFormatSettings.Create
 0001:00020400       System.SysUtils.TFormatSettings.GetDayNames
 0001:00020870       System.SysUtils.TFormatSettings.GetEraInformation
 0001:000211E0       System.SysUtils.TFormatSettings.GetEraYearOffset
 0001:00020510       System.SysUtils.TFormatSettings.GetMonthNames
 0001:00020D10       System.SysUtils.TFormatSettings.GetString
 0001:00020180       System.SysUtils.TFormatSettings.Invariant
 0001:00020DB0       System.SysUtils.TFormatSettings.TranslateDateFormat
 0001:0001F710       System.SysUtils.TimeStampToDateTime
 0003:00006324       System.SysUtils.TLanguages.$ClassInitFlag
 0001:000249D0       System.SysUtils.TLanguages.Create
 0001:00018030       System.SysUtils.TLanguages.Create@
 0001:00024A90       System.SysUtils.TLanguages.Destroy
 0001:00024F30       System.SysUtils.TLanguages.Destroy@
 0001:00024AD0       System.SysUtils.TLanguages.GetCount
 0001:00024B00       System.SysUtils.TLanguages.GetExt
 0001:00024B40       System.SysUtils.TLanguages.GetID
 0001:00024BE0       System.SysUtils.TLanguages.GetLocaleID
 0001:00024CE0       System.SysUtils.TLanguages.GetLocaleIDFromLocaleName
 0001:00024DB0       System.SysUtils.TLanguages.GetLocaleIDFromName
 0001:00024C00       System.SysUtils.TLanguages.GetLocaleName
 0001:00024C40       System.SysUtils.TLanguages.GetName
 0001:00024D80       System.SysUtils.TLanguages.GetNameFromLCID
 0001:00024C80       System.SysUtils.TLanguages.GetNameFromLocaleID
 0001:00024E40       System.SysUtils.TLanguages.IndexOf
 0001:00024EB0       System.SysUtils.TLanguages.IndexOf
 0001:00024680       System.SysUtils.TLanguages.LocalesCallback
 0003:00006514       System.SysUtils.TOSVersion.$ClassInitFlag
 0001:000258D0       System.SysUtils.TOSVersion.Check
 0001:00025510       System.SysUtils.TOSVersion.Create@
 0001:0001BEE0       System.SysUtils.TOSVersion.Destroy@
 0003:000064F0       System.SysUtils.TOSVersion.FArchitecture
 0003:000064F4       System.SysUtils.TOSVersion.FBuild
 0003:000064F8       System.SysUtils.TOSVersion.FMajor
 0003:000064FC       System.SysUtils.TOSVersion.FMinor
 0003:00006500       System.SysUtils.TOSVersion.FName
 0003:00006508       System.SysUtils.TOSVersion.FPlatform
 0003:0000650C       System.SysUtils.TOSVersion.FServicePackMajor
 0003:00006510       System.SysUtils.TOSVersion.FServicePackMinor
 0003:000064E0       System.SysUtils.TrueBoolStrs
 0001:0001F880       System.SysUtils.TryEncodeDate
 0001:0001F770       System.SysUtils.TryEncodeTime
 0001:0001CBE0       System.SysUtils.TryStrToInt
 0001:00024FB0       System.SysUtils.TStringHelper.Compare
 0001:000251C0       System.SysUtils.TStringHelper.Compare
 0001:00025200       System.SysUtils.TStringHelper.Create
 0001:00024FA0       System.SysUtils.TStringHelper.GetLength
 0001:000250F0       System.SysUtils.TStringHelper.InternalCompare
 0001:00024FE0       System.SysUtils.TStringHelper.InternalCompare
 0001:00025060       System.SysUtils.TStringHelper.InternalMapOptionsToFlags
 0001:00025250       System.SysUtils.TStringHelper.LastDelimiter
 0001:000252E0       System.SysUtils.TStringHelper.Replace
 0001:000253A0       System.SysUtils.TStringHelper.Substring
 0001:000253E0       System.SysUtils.TStringHelper.Substring
 0001:00025410       System.SysUtils.TStringHelper.ToCharArray
 0001:00025450       System.SysUtils.TStringHelper.ToCharArray
 0002:00002EE8       System.SysUtils.TwoDigitLookup
 0002:000030A0       System.SysUtils.TwoHexLookup
 0001:0001C730       System.SysUtils.UIntToStr
 0001:0001C750       System.SysUtils.UIntToStr
 0003:00008748       System.SysUtils.UnitHashBuckets
 0003:00006760       System.SysUtils.ValidatedUnitHashBuckets
 0001:0001F6C0       System.SysUtils.ValidateTimeStamp
 0001:0001D500       System.SysUtils.VariantToUnicodeString
 0001:00022DE0       System.SysUtils.WaitForSyncWaitObj
 0001:00022F90       System.SysUtils.WaitOrSignalObj
 0001:0001D560       System.SysUtils.WideFormatBuf
 0002:00002E64       System.SysUtils.Win32BuildNumber
 0002:00002E68       System.SysUtils.Win32CSDVersion
 0002:00002E5C       System.SysUtils.Win32MajorVersion
 0002:00002E60       System.SysUtils.Win32MinorVersion
 0002:00002E58       System.SysUtils.Win32Platform
 0001:0001C1C0       System.SysUtils._IntToStr32
 0001:0001C2F0       System.SysUtils._IntToStr64
 0001:0001C770       System.SysUtils._UInt32ToHexString
 0001:0001C900       System.SysUtils._UInt64ToHexString
 0001:0001CA90       System.SysUtils._UIntToHex32
 0001:0001CAD0       System.SysUtils._UIntToHex64
 0005:000015F0       System.Types.$pdata$_ZN6System5Types12FinalizationEv
 0005:000015FC       System.Types.$pdata$_ZN6System5Types14initializationEv
 0002:00002AE0       System.Types.$unwind$_ZN6System5Types12FinalizationEv
 0002:00002AE4       System.Types.$unwind$_ZN6System5Types14initializationEv
 0003:000062A8       System.Types..4
 0001:00011E20       System.Types.Finalization
 0001:00011E30       System.Types.System.Types
 0005:00001608       System.UITypes.$pdata$_ZN6System7Uitypes12FinalizationEv
 0005:00001614       System.UITypes.$pdata$_ZN6System7Uitypes14initializationEv
 0002:00002AE8       System.UITypes.$unwind$_ZN6System7Uitypes12FinalizationEv
 0002:00002AEC       System.UITypes.$unwind$_ZN6System7Uitypes14initializationEv
 0003:000062AC       System.UITypes..2
 0001:00011E40       System.UITypes.Finalization
 0001:00011E50       System.UITypes.System.UITypes
 0005:00001680       Winapi.ImageHlp.$pdata$_ZN6Winapi8Imagehlp12FinalizationEv
 0005:0000168C       Winapi.ImageHlp.$pdata$_ZN6Winapi8Imagehlp14initializationEv
 0002:00002B68       Winapi.ImageHlp.$unwind$_ZN6Winapi8Imagehlp12FinalizationEv
 0002:00002B6C       Winapi.ImageHlp.$unwind$_ZN6Winapi8Imagehlp14initializationEv
 0003:000062C4       Winapi.ImageHlp..1
 0001:00012870       Winapi.ImageHlp.Finalization
 0001:00012880       Winapi.ImageHlp.Winapi.ImageHlp
 0005:000016B0       Winapi.PsAPI.$pdata$_ZN6Winapi5Psapi12FinalizationEv
 0005:000016BC       Winapi.PsAPI.$pdata$_ZN6Winapi5Psapi14initializationEv
 0002:00002B78       Winapi.PsAPI.$unwind$_ZN6Winapi5Psapi12FinalizationEv
 0002:00002B80       Winapi.PsAPI.$unwind$_ZN6Winapi5Psapi14initializationEv
 0003:000062CC       Winapi.PsAPI..1
 0001:000128B0       Winapi.PsAPI.Finalization
 0003:000062D0       Winapi.PsAPI.hPSAPI
 0001:000128F0       Winapi.PsAPI.Winapi.PsAPI
 0005:00001698       Winapi.SHFolder.$pdata$_ZN6Winapi8Shfolder12FinalizationEv
 0005:000016A4       Winapi.SHFolder.$pdata$_ZN6Winapi8Shfolder14initializationEv
 0002:00002B70       Winapi.SHFolder.$unwind$_ZN6Winapi8Shfolder12FinalizationEv
 0002:00002B74       Winapi.SHFolder.$unwind$_ZN6Winapi8Shfolder14initializationEv
 0003:000062C8       Winapi.SHFolder..1
 0001:00012890       Winapi.SHFolder.Finalization
 0001:000128A0       Winapi.SHFolder.Winapi.SHFolder
 0005:00001650       Winapi.Windows.$pdata$_ZN6Winapi7Windows12FinalizationEv
 0005:00001620       Winapi.Windows.$pdata$_ZN6Winapi7Windows14GetProcAddressEyPw
 0005:0000165C       Winapi.Windows.$pdata$_ZN6Winapi7Windows14initializationEv
 0005:00001644       Winapi.Windows.$pdata$_ZN6Winapi7Windows15InitVersionInfoEv
 0001:00012080       Winapi.Windows.$thunk_GetNativeSystemInfo
 0001:000120B0       Winapi.Windows.$thunk_LocaleNameToLCID
 0002:00002B50       Winapi.Windows.$unwind$_ZN6Winapi7Windows12FinalizationEv
 0002:00002AFC       Winapi.Windows.$unwind$_ZN6Winapi7Windows14GetProcAddressEyPw
 0002:00002B58       Winapi.Windows.$unwind$_ZN6Winapi7Windows14initializationEv
 0002:00002B48       Winapi.Windows.$unwind$_ZN6Winapi7Windows15InitVersionInfoEv
 0003:000062B0       Winapi.Windows..2
 0001:000121B0       Winapi.Windows.CharLowerBuff
 0001:000121D0       Winapi.Windows.CharUpperBuff
 0001:000121C0       Winapi.Windows.CharUpperW
 0001:00011E60       Winapi.Windows.CloseHandle
 0001:00011E70       Winapi.Windows.CompareString
 0001:00011EE0       Winapi.Windows.CreateEvent
 0001:00011EF0       Winapi.Windows.EnumCalendarInfo
 0001:00011F00       Winapi.Windows.EnumSystemLocales
 0001:00012260       Winapi.Windows.Finalization
 0001:00011F10       Winapi.Windows.FreeLibrary
 0001:00011F20       Winapi.Windows.GetCPInfo
 0001:00011F30       Winapi.Windows.GetDiskFreeSpace
 0001:00012180       Winapi.Windows.GetFileVersionInfo
 0001:00012190       Winapi.Windows.GetFileVersionInfoSize
 0001:00011F50       Winapi.Windows.GetLocaleInfo
 0001:00011F60       Winapi.Windows.GetLocaleInfoW
 0001:00011F40       Winapi.Windows.GetLocalTime
 0001:00011F70       Winapi.Windows.GetModuleFileName
 0001:00011F80       Winapi.Windows.GetModuleHandle
 0001:00012090       Winapi.Windows.GetNativeSystemInfo
 0001:00011FA0       Winapi.Windows.GetProcAddress
 0001:00011F90       Winapi.Windows.GetProcAddress
 0001:00012070       Winapi.Windows.GetStdHandle
 0001:000121E0       Winapi.Windows.GetSystemMetrics
 0001:000120A0       Winapi.Windows.GetThreadLocale
 0001:000120E0       Winapi.Windows.GetVersionEx
 0001:000120D0       Winapi.Windows.GetVersionEx
 0003:000062B8       Winapi.Windows.HtmlHelpModule
 0001:00012210       Winapi.Windows.InitVersionInfo
 0001:000120F0       Winapi.Windows.IsValidLocale
 0001:00011E80       Winapi.Windows.kernel32.dll
 0001:000121F0       Winapi.Windows.LoadString
 0001:000120C0       Winapi.Windows.LocaleNameToLCID
 0001:00012200       Winapi.Windows.MessageBox
 0001:00012100       Winapi.Windows.ResetEvent
 0001:00012110       Winapi.Windows.SetEvent
 0001:00012120       Winapi.Windows.VerifyVersionInfo
 0001:000121A0       Winapi.Windows.VerQueryValue
 0001:00012130       Winapi.Windows.VerSetConditionMask
 0001:00012140       Winapi.Windows.VirtualQuery
 0001:00012150       Winapi.Windows.WaitForSingleObject
 0001:00012160       Winapi.Windows.WideCharToMultiByte
 0002:00002AF0       Winapi.Windows.Win32MajorVersion
 0002:00002AF4       Winapi.Windows.Win32MinorVersion
 0002:00002AF8       Winapi.Windows.Win32Platform
 0001:00012290       Winapi.Windows.Winapi.Windows
 0001:00012170       Winapi.Windows.WriteFile


  Address             Publics by Value

 0001:000005C8       System..TObject
 0001:00001220       System..TCustomAttribute
 0001:00001340       System..VolatileAttribute
 0001:00002070       System.CloseHandle
 0001:00002080       System.GetStdHandle
 0001:00002090       System.CreateFile
 0001:000020A0       System.GetFileSize
 0001:000020B0       System.GetFileType
 0001:000020C0       System.ReadFile
 0001:000020D0       System.SetEndOfFile
 0001:000020E0       System.SetFilePointer
 0001:000020F0       System.WriteFile
 0001:00002100       System.FindClose
 0001:00002110       System.FindFirstFile
 0001:00002120       System.InitializeCriticalSection
 0001:00002130       System.EnterCriticalSection
 0001:00002140       System.LeaveCriticalSection
 0001:00002150       System.DeleteCriticalSection
 0001:00002160       System.GetCurrentThreadId
 0001:00002170       System.SwitchToThread
 0001:00002180       System.ExitProcess
 0001:00002190       System.RaiseException
 0001:000021A0       System.RtlUnwind
 0001:000021B0       System.RtlUnwindEx
 0001:000021C0       System.UnhandledExceptionFilter
 0001:000021D0       System.GetLastError
 0001:000021E0       System.FreeLibrary
 0001:000021F0       System.LoadString
 0001:00002200       System.GetCommandLine
 0001:00002210       System.GetModuleFileName
 0001:00002220       System.GetModuleHandle
 0001:00002230       System.GetProcAddress
 0001:00002240       System.GetStartupInfo
 0001:00002250       System.LoadLibraryEx
 0001:00002260       System.GetACP
 0001:00002270       System.GetConsoleCP
 0001:00002280       System.GetConsoleOutputCP
 0001:00002290       System.MultiByteToWideChar
 0001:000022A0       System.WideCharToMultiByte
 0001:000022B0       System.GetLocaleInfo
 0001:000022C0       System.GetUserDefaultUILanguage
 0001:000022D0       System.GetSystemDefaultUILanguage
 0001:000022E0       System.SetThreadLocale
 0001:000022F0       System.IsValidLocale
 0001:00002300       System.IsDBCSLeadByteEx
 0001:00002310       System.CharNext
 0001:00002320       System.CompareString
 0001:00002330       System.user32.dll
 0001:00002390       System.$thunk_MessageBoxA
 0001:000023A0       System.MessageBoxA
 0001:000023B0       System.RegCloseKey
 0001:000023C0       System.RegOpenKeyEx
 0001:000023D0       System.RegQueryValueEx
 0001:000023E0       System.GetVersion
 0001:000023F0       System.GetSystemInfo
 0001:00002400       System.GetTickCount
 0001:00002410       System.VirtualQuery
 0001:00002420       System.SysAllocStringLen
 0001:00002430       System.SysReAllocStringLen
 0001:00002440       System.SysFreeString
 0001:00002450       System.@strlen
 0001:00002460       System.kernel32.dll
 0001:000024C0       System.$thunk_GetLogicalProcessorInformation
 0001:000024D0       System.GetLogicalProcessorInformation
 0001:000024E0       System.GetCmdShow
 0001:00002520       System.VirtualAlloc
 0001:00002530       System.VirtualFree
 0001:00002540       System.Sleep
 0001:00002550       System.WriteConsoleFile
 0001:00002630       System.Move8
 0001:00002640       System.Move24
 0001:00002660       System.Move40
 0001:00002680       System.Move56
 0001:000026B0       System.MoveX16LP
 0001:000026E0       System.LockMediumBlocks
 0001:00002730       System.RemoveMediumFreeBlock
 0001:00002780       System.InsertMediumBlockIntoBin
 0001:000027F0       System.BinMediumSequentialFeedRemainder
 0001:00002890       System.AllocNewSequentialFeedMediumPool
 0001:00002930       System.LockLargeBlocks
 0001:00002980       System.AllocateLargeBlock
 0001:00002A10       System.FreeLargeBlock
 0001:00002AD0       System.ReallocateLargeBlock
 0001:00002C60       System.SysGetMem
 0001:00003030       System.SysFreeMem
 0001:00003250       System.SysReallocMem
 0001:000035D0       System.SysAllocMem
 0001:00003630       System.ShowMessage
 0001:00003710       System.NextMediumBlock
 0001:00003730       System.GetFirstMediumBlockInPool
 0001:00003770       System.GetFirstAndLastSmallBlockInPool
 0001:000037C0       System.NativeUIntToStrBuf
 0001:00003830       System.AppendStringToBuffer
 0001:00003860       System.AppendClassNameToBuffer
 0001:000038B0       System.IsValidVMTAddress
 0001:00003940       System.InternalIsValidClass
 0001:000039D0       System.GetObjectClass
 0001:00003A10       System.LockExpectedMemoryLeaksList
 0001:00003AA0       System.SysRegisterExpectedMemoryLeak
 0001:00003B00       System.SysUnregisterExpectedMemoryLeak
 0001:00003BA0       System.CheckSmallBlockPoolForLeaks
 0001:00003DA0       System.ScanForMemoryLeaks
 0001:000042C0       System.BuildBlockTypeLookupTable
 0001:00004330       System.InitializeMemoryManager
 0001:000044B0       System.FreeAllMemory
 0001:000045D0       System.FinalizeMemoryManager
 0001:00004640       System.AllocMem
 0001:00004670       System.@GetMem
 0001:000046A0       System.@FreeMem
 0001:000046D0       System.@ReallocMem
 0001:00004750       System.AllocateRaiseFrame
 0001:000047E0       System.ReleaseRaiseFrame
 0001:00004840       System.ExceptObject
 0001:00004870       System.ExceptAddr
 0001:000048A0       System.AcquireExceptionObject
 0001:000048F0       System.RunErrorAt
 0001:00004910       System.ErrorAt
 0001:00004970       System.Error
 0001:00004990       System.@_IOTest
 0001:000049C0       System.SetInOutRes
 0001:000049E0       System.IOResult
 0001:00004A10       System.Move
 0001:00004BD0       System.FSetExceptFlag
 0001:00004C10       System.FRaiseExcept
 0001:00004CF0       System.FGetExceptMask
 0001:00004D10       System.Get8087CW
 0001:00004D20       System.SetMXCSRExceptionFlag
 0001:00004D50       System.GetMXCSR
 0001:00004D60       System.@Round
 0001:00004D70       System.@Trunc
 0001:00004D80       System.@Abs
 0001:00004D90       System.@_FlushMBCSBuffer
 0001:00004DA0       System.OpenText
 0001:00004E20       System.@ResetText
 0001:00004E40       System.@RewritText
 0001:00004E60       System.TextIn
 0001:00004EB0       System.FileNOPProc
 0001:00004EC0       System.TextOut
 0001:00004F10       System.InternalClose
 0001:00004F30       System.TextClose
 0001:00004F60       System.TextOpenCleanup
 0001:00004F90       System.TextOpen
 0001:000052A0       System.InternalFlush
 0001:00005300       System.Flush
 0001:00005320       System.@Flush
 0001:00005340       System.@Close
 0001:000053B0       System.@FillChar
 0001:00005500       System.TryOpenForInput
 0001:00005550       System.@ReadByte
 0001:000055F0       System.@ReadWord
 0001:00005690       System.@GetAnsiChar
 0001:000058B0       System.@SkipAnsiChar
 0001:000058F0       System.@GetWideChar
 0001:00005C30       System.@SkipWideChar
 0001:00005C70       System.@ReadLn
 0001:00005D10       System.@ValLong
 0001:00005EF0       System.TryOpenForOutput
 0001:00005F50       System.@WriteBytes
 0001:00006010       System.@WriteSpaces
 0001:00006120       System.WriteUnicodeFromMBCSBuffer
 0001:000061D0       System.@Write0Char
 0001:00006390       System.@Write0CString
 0001:000063B0       System.@WriteCString
 0001:00006430       System.@Write0LString
 0001:00006510       System.@WriteLString
 0001:00006610       System.@Write0UString
 0001:00006630       System.@WriteUString
 0001:00006770       System.@WriteLn
 0001:000067B0       System.Power10
 0001:000068E0       System.@GetCPUID
 0001:00006900       System.GetCPUID
 0001:00006920       System.InitializeCPUID
 0001:00006970       System.@InitializeControlWord
 0001:000069A0       System.@FpuInit
 0001:000069B0       System.@IntOver
 0001:000069D0       System.TObject.ClassType
 0001:000069E0       System.TObject.ClassName
 0001:00006A10       System.TObject.QualifiedClassName
 0001:00006AF0       System.TObject.ClassNameIs
 0001:00006BB0       System.TObject.ClassParent
 0001:00006BC0       System.TObject.InstanceSize
 0001:00006BD0       System.TObject.NewInstance
 0001:00006C00       System.TObject.FreeInstance
 0001:00006C20       System.TObject.CPP_ABI_1
 0001:00006C30       System.TObject.CPP_ABI_2
 0001:00006C40       System.TObject.CPP_ABI_3
 0001:00006C50       System.TObject.Create
 0001:00006CE0       System.TObject.Destroy
 0001:00006D10       System.TObject.Free
 0001:00006D30       System.TObject.DisposeOf
 0001:00006D40       System.TObject.GetInterfaceTable
 0001:00006D50       System.TObject.InitInstance
 0001:00006DF0       System.TObject.CleanupInstance
 0001:00006E60       System.InvokeImplGetter
 0001:00006F00       System.TObject.Equals
 0001:00006F10       System.TObject.GetHashCode
 0001:00006F20       System.TObject.GetInterface
 0001:00007010       System.TObject.GetInterfaceEntry
 0001:000070A0       System.TObject.UnitName
 0001:00007140       System.TObject.UnitScope
 0001:000071E0       System.@IsClass
 0001:00007200       System.@AsClass
 0001:00007230       System.@IntfAsClass
 0001:00007270       System.GetDynaMethod
 0001:000072F0       System.TObject.InheritsFrom
 0001:00007310       System.TObject.ClassInfo
 0001:00007320       System.TObject.SafeCallException
 0001:00007330       System.TObject.ToString
 0001:00007350       System.TObject.DefaultHandler
 0001:00007360       System.TObject.AfterConstruction
 0001:00007370       System.TObject.BeforeDestruction
 0001:00007380       System.TObject.Dispatch
 0001:000073F0       System.UTF8Compare
 0001:00007490       System.TObject.MethodAddress
 0001:00007520       System.UTF8ShortStringToString
 0001:00007540       System.TObject.MethodAddress
 0001:00007570       System.TObject.MethodName
 0001:000075F0       System.TObject.FieldAddress
 0001:000076A0       System.TObject.FieldAddress
 0001:000076D0       System.@ClassCreate
 0001:000076F0       System.@ClassDestroy
 0001:00007710       System.@AfterConstruction
 0001:00007770       System.@BeforeDestruction
 0001:00007790       System.TMonitor.TSpinWait.SpinCycle
 0001:00007820       System.TMonitor.TSpinLock.Enter
 0001:00007860       System.TMonitor.TSpinLock.Exit
 0001:00007870       System.TMonitor.Spin
 0001:00007880       System.TMonitor.GetCacheLineSize
 0001:000079C0       System.TMonitor.CheckMonitorSupport
 0001:000079E0       System.TMonitor.CheckOwningThread
 0001:00007A00       System.TMonitor.Create
 0001:00007A70       System.TMonitor.Destroy
 0001:00007AA0       System.TMonitor.Destroy
 0001:00007AE0       System.TMonitor.Enter
 0001:00007B10       System.TMonitor.Enter
 0001:00007B40       System.TMonitor.DequeueWaiter
 0001:00007BF0       System.TMonitor.Enter
 0001:00007DC0       System.TMonitor.Exit
 0001:00007E20       System.TMonitor.Exit
 0001:00007E50       System.TMonitor.GetEvent
 0001:00007ED0       System.TMonitor.GetFieldAddress
 0001:00007EE0       System.TMonitor.GetMonitor
 0001:00007F50       System.TMonitor.Pulse
 0001:00007F80       System.TMonitor.Pulse
 0001:00007FB0       System.TMonitor.PulseAll
 0001:00007FF0       System.TMonitor.PulseAll
 0001:00008020       System.TMonitor.QueueWaiter
 0001:000080D0       System.TMonitor.RemoveWaiter
 0001:000081E0       System.TMonitor.SetSpinCount
 0001:00008200       System.TMonitor.TryEnter
 0001:00008230       System.TMonitor.TryEnter
 0001:00008280       System.TMonitor.Wait
 0001:00008370       System.TMonitor.Wait
 0001:000083A0       System.TMonitor.Wait
 0001:000083E0       System.NotifyReRaise
 0001:00008410       System.NotifyNonDelphiException
 0001:00008450       System.NotifyExcept
 0001:00008480       System.NotifyOnExcept
 0001:000084A0       System.NotifyAnyExcept
 0001:000084C0       System.NotifyExceptFinally
 0001:00008500       System.NotifyTerminate
 0001:00008540       System.NotifyUnhandled
 0001:00008580       System.FindOnExceptionDescEntry
 0001:00008670       System.@DelphiExceptionHandler
 0001:00009080       System.@RaiseAtExcept
 0001:000091A0       System.@RaiseExcept
 0001:000091C0       System.@RaiseAgain
 0001:00009200       System.@DestroyException
 0001:000092D0       System.@DoneExcept
 0001:00009330       System.FinalizeUnits
 0001:000093D0       System.InitUnits
 0001:00009470       System.@StartExe
 0001:000094D0       System.LoadResStringA
 0001:00009550       System.LoadResStringW
 0001:000095C0       System.LoadResStringU
 0001:000095E0       System.@InitResStringImports
 0001:00009730       System.@InitImports
 0001:00009780       System.@FinalizeResStringImports
 0001:00009800       System.MakeErrorMessage
 0001:00009890       System.@ExitDllLongJump
 0001:00009900       System.ExitDll
 0001:00009970       System.WriteErrorMessage
 0001:00009A50       System.@Halt0
 0001:00009BE0       System.@Halt
 0001:00009C00       System.@RunError
 0001:00009C30       System.@UnhandledException
 0001:00009C80       System.@NewUnicodeString
 0001:00009CE0       System.@NewAnsiString
 0001:00009D60       System.WStrError
 0001:00009D80       System.@UStrClr
 0001:00009DD0       System.@LStrClr
 0001:00009E20       System.@WStrClr
 0001:00009E60       System.@UStrArrayClr
 0001:00009E90       System.@LStrArrayClr
 0001:00009EC0       System.@WStrArrayClr
 0001:00009F10       System.@UStrAddRef
 0001:00009F30       System.CharFromWChar
 0001:00009F80       System.CharFromWChar
 0001:00009FA0       System.WCharFromChar
 0001:00009FD0       System.@UStrFromPWCharLen
 0001:0000A030       System.@WStrFromPWCharLen
 0001:0000A080       System.@LStrFromPCharLen
 0001:0000A0D0       System.InternalUStrFromPCharLen
 0001:0000A1A0       System.@UStrFromPCharLen
 0001:0000A1C0       System.@LStrFromPWCharLen
 0001:0000A270       System.@UStrAsg
 0001:0000A2F0       System.@UStrLAsg
 0001:0000A330       System.@WStrAsg
 0001:0000A380       System.@LStrAsg
 0001:0000A400       System.@UStrLen
 0001:0000A410       System.@LStrLen
 0001:0000A420       System.@PCharLen
 0001:0000A440       System.@PWCharLen
 0001:0000A460       System.InternalUniqueStringU
 0001:0000A4C0       System.InternalUniqueStringA
 0001:0000A520       System.@UniqueStringU
 0001:0000A530       System.@UniqueStringA
 0001:0000A540       System.UniqueString
 0001:0000A550       System.@AStrCmp
 0001:0000A5F0       System.@Copy
 0001:0000A680       System.@LStrFromPChar
 0001:0000A6B0       System.@LStrFromPWChar
 0001:0000A740       System.@LStrToPChar
 0001:0000A770       System.@LStrSetLength
 0001:0000A830       System.@LStrFromUStr
 0001:0000A860       System.InternalUStrCatN
 0001:0000A9B0       System.@WCharToString
 0001:0000AA30       System.@UStrToPWChar
 0001:0000AA60       System.@UStrFromWChar
 0001:0000AA80       System.@UStrFromPChar
 0001:0000AAB0       System.@UStrFromPWChar
 0001:0000AAE0       System.@UStrFromWArray
 0001:0000AB30       System.@UStrFromLStr
 0001:0000AB60       System.@WStrFromUStr
 0001:0000AB90       System.@UStrFromString
 0001:0000ABB0       System.@UStrSetLength
 0001:0000AC90       System.@UStrCat
 0001:0000AD60       System.@UStrCat3
 0001:0000AE90       System.@UStrCatN
 0001:0000AED0       System.@UStrCmp
 0001:0000AF70       System.@UStrEqual
 0001:0000AF80       System.@UStrCopy
 0001:0000AFE0       System.Pos
 0001:0000B090       System.Pos
 0001:0000B140       System.SetCodePage
 0001:0000B2F0       System.@InitializeRecord
 0001:0000B360       System.@InitializeArray
 0001:0000B480       System.@FinalizeRecord
 0001:0000B550       System.@VarClr
 0001:0000B580       System.@FinalizeArray
 0001:0000B6F0       System.@Finalize
 0001:0000B710       System.@VarCopy
 0001:0000B740       System.@CopyRecord
 0001:0000BA00       System.MoveRecord
 0001:0000BC70       System.@CopyArray
 0001:0000BE40       System.MoveArray
 0001:0000BF90       System.@Dispose
 0001:0000BFB0       System.FinalizeArray
 0001:0000BFC0       System.@DispCallByIDError
 0001:0000BFE0       System.@DynArrayLength
 0001:0000BFF0       System.InternalHasWeakRef
 0001:0000C0E0       System.SysHasWeakRef
 0001:0000C140       System.DynArraySetLength
 0001:0000C570       System.@DynArraySetLength
 0001:0000C5B0       System.@DynArrayCopy
 0001:0000C5E0       System.@DynArrayCopyRange
 0001:0000C740       System.@DynArrayClear
 0001:0000C7C0       System.@DynArrayAsg
 0001:0000C810       System.@DynArrayAddRef
 0001:0000C830       System.DelayLoadResourceModule
 0001:0000C890       System.FindResourceHInstance
 0001:0000CAC0       System.InitializeLocaleData
 0001:0000CBD0       System.FinalizeLocaleDate
 0001:0000CBF0       System.StringCopy
 0001:0000CC30       System.LastHyphenPos
 0001:0000CCB0       System.ConvertResToUILanguages
 0001:0000CE00       System.GetPreferredLangForOldOS
 0001:0000D030       System.CheckDifferentLanguageList
 0001:0000D060       System.ThreadUILanguages
 0001:0000D0C0       System.GetPreferredLangForNewOS
 0001:0000D230       System.GetUILanguages
 0001:0000D3F0       System.FindBS
 0001:0000D420       System.ToLongPath
 0001:0000D670       System.InternalGetLocaleOverride
 0001:0000DAA0       System.GetLocaleOverride
 0001:0000DB20       System.SetLocaleOverride
 0001:0000DBA0       System.ResouceDLLExists
 0001:0000DC30       System.LoadLanguageList
 0001:0000DD50       System.Load3LettersModule
 0001:0000DE70       System.GetResourceModuleName
 0001:0000E0A0       System.LoadResourceModule
 0001:0000E190       System.EnumResourceModules
 0001:0000E1D0       System.AddModuleUnloadProc
 0001:0000E200       System.RemoveModuleUnloadProc
 0001:0000E270       System.NotifyModuleUnload
 0001:0000E2E0       System.RegisterModule
 0001:0000E300       System.UnregisterModule
 0001:0000E400       System.@IntfClear
 0001:0000E440       System.@IntfCopy
 0001:0000E490       System.@IntfCast
 0001:0000E510       System.@IntfAddRef
 0001:0000ED00       System.TInstItem.Create
 0001:0000ED30       System.TInstItem.ClearWeakRefs
 0001:0000EE20       System.TInstItem.Lock
 0001:0000EE40       System.TInstItem.Unlock
 0001:0000EE60       System.TInstItem.Destroy
 0001:0000EE80       System.TInstItem.Free
 0001:0000EEC0       System.TInstItem.RegisterRef
 0001:0000F090       System.TInstItem.UnregisterRef
 0001:0000F190       System.TInstItem.RegisterWeakRef
 0001:0000F1C0       System.TInstItem.UnregisterWeakRef
 0001:0000F1F0       System.TInstItem.RegisterWeakMethodRef
 0001:0000F220       System.TInstItem.UnregisterWeakMethodRef
 0001:0000F250       System.TInstBucket.AddInstItem
 0001:0000F360       System.TInstBucket.FindInstItem
 0001:0000F3F0       System.TInstBucket.Finalize
 0001:0000F450       System.TInstBucket.Initialize
 0001:0000F470       System.TInstBucket.Lock
 0001:0000F490       System.TInstBucket.RemoveInstItem
 0001:0000F520       System.TInstBucket.Unlock
 0001:0000F540       System.TInstHashMap.FreeInstItem
 0001:0000F5A0       System.TInstHashMap.NewInstItem
 0001:0000F5C0       System.TInstHashMap.PopInstItem
 0001:0000F600       System.TInstHashMap.Finalize
 0001:0000F660       System.TInstHashMap.Initialize
 0001:0000F750       System.TInstHashMap.Destroy
 0001:0000F840       System.TInstHashMap.RegisterWeakRef
 0001:0000F980       System.TInstHashMap.UnregisterWeakRef
 0001:0000FA80       System.TInstHashMap.RegisterWeakMethodRef
 0001:0000FBC0       System.TInstHashMap.UnregisterWeakMethodRef
 0001:0000FCC0       System.TInstHashMap.IsRegistered
 0001:0000FDB0       System.MarkWeakReferenced
 0001:0000FE00       System.RegisterWeakRef
 0001:0000FE50       System.UnregisterWeakRef
 0001:0000FE80       System.@CleanupInstance
 0001:0000FEB0       System.@IntfWeakClear
 0001:0000FEF0       System.@IntfWeakCopy
 0001:0000FF70       System.UnicodeToUtf8
 0001:00010080       System.Utf8ToUnicode
 0001:00010140       System.UTF8EncodeToShortString
 0001:00010190       System.UTF8ToUnicodeString
 0001:00010260       System.UTF8ToString
 0001:00010280       System.LoadResString
 0001:00010310       System.LocaleCharsFromUnicode
 0001:00010350       System.UnicodeFromLocaleChars
 0001:00010370       System.GetCPUCount
 0001:00010390       System.SetUTF8CompareLocale
 0001:000103E0       System.TGUID.&op_Equality
 0001:00010400       System.TGUID.&op_Inequality
 0001:00010420       System.TGUID.Create
 0001:000104D0       System.TGUID.Create
 0001:00010510       System.TGUID.Empty
 0001:00010540       System.Finalization
 0001:000105E0       System.System
 0001:000106E0       SysInit.FreeLibrary
 0001:000106F0       SysInit.GetModuleHandle
 0001:00010700       SysInit.LocalAlloc
 0001:00010710       SysInit.LocalFree
 0001:00010720       SysInit.TlsGetValue
 0001:00010730       SysInit.TlsSetValue
 0001:00010740       SysInit.GetLastError
 0001:00010750       SysInit.LoadLibraryA
 0001:00010760       SysInit.RaiseException
 0001:00010770       SysInit.GetProcAddress
 0001:00010780       SysInit.@DelayLoadHelper2
 0001:00010790       SysInit.AllocTlsBuffer
 0001:000107B0       SysInit.GetTlsSize
 0001:000107C0       SysInit.InitThreadTLS
 0001:00010820       SysInit.@GetTls
 0001:00010880       SysInit.InitializeModule
 0001:000108A0       SysInit.@_dbkDummyProc
 0001:000108B0       SysInit.@_dbkFCallArgs
 0001:00010CB0       SysInit.@_dbk_fcall_wrapper
 0001:00011000       SysInit.@InitExe
 0001:00011080       SysInit.@_delayLoadHelper2
 0001:000115D0       SysInit...?PinhFromImageBase@@YAPEAU_IMAGE_NT_HEADERS64@@PEAUHINSTANCE__@@@Z
 0001:000115F0       SysInit...?TimeStampOfImage@@YAKPEAU_IMAGE_NT_HEADERS64@@@Z
 0001:00011610       SysInit...?FLoadedAtPreferredAddress@@YA_NPEAU_IMAGE_NT_HEADERS64@@PEAUHINSTANCE__@@@Z
 0001:00011650       SysInit.@_FUnloadDelayLoadedDLL2
 0001:00011830       SysInit...?__strlen@@YA_KPEBD@Z
 0001:00011880       SysInit...?__memcmp@@YAHPEBX0_K@Z
 0001:00011900       SysInit...?OverlayIAT@@YAXPEAU_IMAGE_THUNK_DATA64@@PEBU1@@Z
 0001:00011940       SysInit...?__memcpy@@YAPEAXPEAXPEBX_K@Z
 0001:000119B0       SysInit.@_HrLoadAllImportsForDll
 0001:00011AF0       SysInit.ShutdownDelayHelp2
 0001:00011B00       SysInit...?IndexFromPImgThunkData@@YAIPEBU_IMAGE_THUNK_DATA64@@0@Z
 0001:00011B20       SysInit...??0ULI@@QEAA@PEBUImgDelayDescr@@@Z
 0001:00011B50       SysInit...??2ULI@@SAPEAX_K@Z
 0001:00011B70       SysInit...?Link@ULI@@QEAAXXZ
 0001:00011BA0       SysInit...?CountOfImports@@YAIPEBU_IMAGE_THUNK_DATA64@@@Z
 0001:00011BF0       SysInit...??_GULI@@QEAAPEAXI@Z
 0001:00011C30       SysInit...??1ULI@@QEAA@XZ
 0001:00011C50       SysInit...??3ULI@@SAXPEAX@Z
 0001:00011C70       SysInit...?Unlink@ULI@@QEAAXXZ
 0001:00011CD0       SysInit...HRESULT_FROM_WIN32
 0001:00011D10       SysInit...??$PFromRva@PEBD@@YAPEBDK@Z
 0001:00011D30       SysInit...??$PFromRva@PEAPEAUHINSTANCE__@@@@YAPEAPEAUHINSTANCE__@@K@Z
 0001:00011D50       SysInit...??$PFromRva@PEAU_IMAGE_THUNK_DATA64@@@@YAPEAU_IMAGE_THUNK_DATA64@@K@Z
 0001:00011D70       SysInit...??$PFromRva@PEBU_IMAGE_THUNK_DATA64@@@@YAPEBU_IMAGE_THUNK_DATA64@@K@Z
 0001:00011D90       SysInit...??$PFromRva@PEAU_IMAGE_IMPORT_BY_NAME@@@@YAPEAU_IMAGE_IMPORT_BY_NAME@@K@Z
 0001:00011DB0       SysInit...??$PFromRva@PEBUImgDelayDescr@@@@YAPEBUImgDelayDescr@@K@Z
 0001:00011DD0       SysInit...??$PFromRva@PEAP6A_JXZ@@YAPEAP6A_JXZK@Z
 0001:00011DF0       SysInit.Finalization
 0001:00011E10       SysInit.SysInit
 0001:00011E20       System.Types.Finalization
 0001:00011E30       System.Types.System.Types
 0001:00011E40       System.UITypes.Finalization
 0001:00011E50       System.UITypes.System.UITypes
 0001:00011E60       Winapi.Windows.CloseHandle
 0001:00011E70       Winapi.Windows.CompareString
 0001:00011E80       Winapi.Windows.kernel32.dll
 0001:00011EE0       Winapi.Windows.CreateEvent
 0001:00011EF0       Winapi.Windows.EnumCalendarInfo
 0001:00011F00       Winapi.Windows.EnumSystemLocales
 0001:00011F10       Winapi.Windows.FreeLibrary
 0001:00011F20       Winapi.Windows.GetCPInfo
 0001:00011F30       Winapi.Windows.GetDiskFreeSpace
 0001:00011F40       Winapi.Windows.GetLocalTime
 0001:00011F50       Winapi.Windows.GetLocaleInfo
 0001:00011F60       Winapi.Windows.GetLocaleInfoW
 0001:00011F70       Winapi.Windows.GetModuleFileName
 0001:00011F80       Winapi.Windows.GetModuleHandle
 0001:00011F90       Winapi.Windows.GetProcAddress
 0001:00011FA0       Winapi.Windows.GetProcAddress
 0001:00012070       Winapi.Windows.GetStdHandle
 0001:00012080       Winapi.Windows.$thunk_GetNativeSystemInfo
 0001:00012090       Winapi.Windows.GetNativeSystemInfo
 0001:000120A0       Winapi.Windows.GetThreadLocale
 0001:000120B0       Winapi.Windows.$thunk_LocaleNameToLCID
 0001:000120C0       Winapi.Windows.LocaleNameToLCID
 0001:000120D0       Winapi.Windows.GetVersionEx
 0001:000120E0       Winapi.Windows.GetVersionEx
 0001:000120F0       Winapi.Windows.IsValidLocale
 0001:00012100       Winapi.Windows.ResetEvent
 0001:00012110       Winapi.Windows.SetEvent
 0001:00012120       Winapi.Windows.VerifyVersionInfo
 0001:00012130       Winapi.Windows.VerSetConditionMask
 0001:00012140       Winapi.Windows.VirtualQuery
 0001:00012150       Winapi.Windows.WaitForSingleObject
 0001:00012160       Winapi.Windows.WideCharToMultiByte
 0001:00012170       Winapi.Windows.WriteFile
 0001:00012180       Winapi.Windows.GetFileVersionInfo
 0001:00012190       Winapi.Windows.GetFileVersionInfoSize
 0001:000121A0       Winapi.Windows.VerQueryValue
 0001:000121B0       Winapi.Windows.CharLowerBuff
 0001:000121C0       Winapi.Windows.CharUpperW
 0001:000121D0       Winapi.Windows.CharUpperBuff
 0001:000121E0       Winapi.Windows.GetSystemMetrics
 0001:000121F0       Winapi.Windows.LoadString
 0001:00012200       Winapi.Windows.MessageBox
 0001:00012210       Winapi.Windows.InitVersionInfo
 0001:00012260       Winapi.Windows.Finalization
 0001:00012290       Winapi.Windows.Winapi.Windows
 0001:00012850       System.SysConst.Finalization
 0001:00012860       System.SysConst.System.SysConst
 0001:00012870       Winapi.ImageHlp.Finalization
 0001:00012880       Winapi.ImageHlp.Winapi.ImageHlp
 0001:00012890       Winapi.SHFolder.Finalization
 0001:000128A0       Winapi.SHFolder.Winapi.SHFolder
 0001:000128B0       Winapi.PsAPI.Finalization
 0001:000128F0       Winapi.PsAPI.Winapi.PsAPI
 0001:00012A50       System.RTLConsts.Finalization
 0001:00012A60       System.RTLConsts.System.RTLConsts
 0001:00012A70       System.Character.bin_data
 0001:00017800       System.Character.CharTableInitialize
 0001:000178A0       System.Character.InternalGetUnicodeCategory
 0001:00017900       System.Character.TCharHelper.IsLetter
 0001:000179A0       System.Character.TCharHelper.IsNumber
 0001:00017A40       System.Character.Finalization
 0001:00017A50       System.Character.System.Character
 0001:00017EF0       System.Internal.ExcUtils.Finalization
 0001:00017F30       System.Internal.ExcUtils.System.Internal.ExcUtils
 0001:00018030       System.SysUtils.TLanguages.Create@
 0001:00018040       System.SysUtils..TLanguages
 0001:000186E8       System.SysUtils..Exception
 0001:000190E8       System.SysUtils..EHeapException
 0001:00019288       System.SysUtils..EOutOfMemory
 0001:000193B8       System.SysUtils..EInOutError
 0001:00019508       System.SysUtils..EExternal
 0001:00019660       System.SysUtils..EExternalException
 0001:000197A0       System.SysUtils..EIntError
 0001:000198C8       System.SysUtils..EDivByZero
 0001:000199F8       System.SysUtils..ERangeError
 0001:00019B28       System.SysUtils..EIntOverflow
 0001:00019C58       System.SysUtils..EMathError
 0001:00019D88       System.SysUtils..EInvalidOp
 0001:00019EB8       System.SysUtils..EZeroDivide
 0001:00019FE8       System.SysUtils..EOverflow
 0001:0001A110       System.SysUtils..EUnderflow
 0001:0001A240       System.SysUtils..EInvalidPointer
 0001:0001A378       System.SysUtils..EInvalidCast
 0001:0001A4A8       System.SysUtils..EConvertError
 0001:0001A5E0       System.SysUtils..EAccessViolation
 0001:0001A718       System.SysUtils..EPrivilege
 0001:0001A848       System.SysUtils..EStackOverflow
 0001:0001A980       System.SysUtils..EControlC
 0001:0001AAA8       System.SysUtils..EVariantError
 0001:0001ABE0       System.SysUtils..EAssertionFailed
 0001:0001AD18       System.SysUtils..EAbstractError
 0001:0001AE50       System.SysUtils..EIntfCastError
 0001:0001AF88       System.SysUtils..ESafecallException
 0001:0001B0C8       System.SysUtils..EMonitor
 0001:0001B1F0       System.SysUtils..EMonitorLockException
 0001:0001B338       System.SysUtils..ENoMonitorSupportException
 0001:0001B488       System.SysUtils..ENotImplemented
 0001:0001B5C0       System.SysUtils..EObjectDisposed
 0001:0001BEE0       System.SysUtils.TOSVersion.Destroy@
 0001:0001BF10       System.SysUtils.ConvertError
 0001:0001BF40       System.SysUtils.ConvertErrorFmt
 0001:0001BF80       System.SysUtils.CompareStr
 0001:0001C030       System.SysUtils.CompareText
 0001:0001C120       System.SysUtils.AnsiUpperCase
 0001:0001C170       System.SysUtils.AnsiLowerCase
 0001:0001C1C0       System.SysUtils._IntToStr32
 0001:0001C2F0       System.SysUtils._IntToStr64
 0001:0001C6C0       System.SysUtils.IntToStr
 0001:0001C6F0       System.SysUtils.IntToStr
 0001:0001C730       System.SysUtils.UIntToStr
 0001:0001C750       System.SysUtils.UIntToStr
 0001:0001C770       System.SysUtils._UInt32ToHexString
 0001:0001C900       System.SysUtils._UInt64ToHexString
 0001:0001CA90       System.SysUtils._UIntToHex32
 0001:0001CAD0       System.SysUtils._UIntToHex64
 0001:0001CB20       System.SysUtils.IntToHex
 0001:0001CB40       System.SysUtils.IntToHex
 0001:0001CB60       System.SysUtils.StrToInt
 0001:0001CBB0       System.SysUtils.StrToIntDef
 0001:0001CBE0       System.SysUtils.TryStrToInt
 0001:0001CC70       System.SysUtils.EnumStringModules
 0001:0001CCC0       System.SysUtils.FindStringResource
 0001:0001CD50       System.SysUtils.LoadStr
 0001:0001CD70       System.SysUtils.ExtractFileName
 0001:0001CDC0       System.SysUtils.BackfillGetDiskFreeSpaceEx
 0001:0001CE20       System.SysUtils.StrEnd
 0001:0001CE30       System.SysUtils.StrMove
 0001:0001CE60       System.SysUtils.StrLCopy
 0001:0001CEC0       System.SysUtils.StrRScan
 0001:0001CF00       System.SysUtils.StrPos
 0001:0001CF60       System.SysUtils.FormatError
 0001:0001CFE0       System.SysUtils.FormatBuf
 0001:0001D010       System.SysUtils.StrLFmt
 0001:0001D040       System.SysUtils.StrLFmt
 0001:0001D0B0       System.SysUtils.Format
 0001:0001D0E0       System.SysUtils.Format
 0001:0001D110       System.SysUtils.FmtStr
 0001:0001D250       System.SysUtils.ApplyWidth
 0001:0001D2F0       System.SysUtils.AddBuf
 0001:0001D500       System.SysUtils.VariantToUnicodeString
 0001:0001D560       System.SysUtils.WideFormatBuf
 0001:0001E6B0       System.SysUtils.AppendChar
 0001:0001E700       System.SysUtils.AppendString
 0001:0001E7C0       System.SysUtils.GetDigit
 0001:0001E7F0       System.SysUtils.FormatNumber
 0001:0001E930       System.SysUtils.FormatExponent
 0001:0001EA60       System.SysUtils.InternalFloatToText
 0001:0001EF20       System.SysUtils.FloatToText
 0001:0001EF60       System.SysUtils.GetBcdBytes
 0001:0001F030       System.SysUtils.ExtToDecimal
 0001:0001F330       System.SysUtils.CurrToDecimal
 0001:0001F680       System.SysUtils.FloatToDecimal
 0001:0001F6C0       System.SysUtils.ValidateTimeStamp
 0001:0001F710       System.SysUtils.TimeStampToDateTime
 0001:0001F770       System.SysUtils.TryEncodeTime
 0001:0001F7F0       System.SysUtils.EncodeTime
 0001:0001F830       System.SysUtils.IsLeapYear
 0001:0001F880       System.SysUtils.TryEncodeDate
 0001:0001F990       System.SysUtils.EncodeDate
 0001:0001F9C0       System.SysUtils.Now
 0001:0001FA20       System.SysUtils.GetLocaleStr
 0001:0001FA80       System.SysUtils.GetLocaleChar
 0001:0001FAB0       System.SysUtils.TFormatSettings.Create
 0001:00020080       System.SysUtils.TFormatSettings.Create
 0001:00020160       System.SysUtils.TFormatSettings.Create
 0001:00020180       System.SysUtils.TFormatSettings.Invariant
 0001:000203C0       System.SysUtils.TFormatSettings.AdjustLocaleName
 0001:00020400       System.SysUtils.TFormatSettings.GetDayNames
 0001:00020510       System.SysUtils.TFormatSettings.GetMonthNames
 0001:000206D0       System.SysUtils.FSEnumEraNames
 0001:000207A0       System.SysUtils.FSEnumEraYearOffsets
 0001:00020870       System.SysUtils.TFormatSettings.GetEraInformation
 0001:00020D10       System.SysUtils.TFormatSettings.GetString
 0001:00020D50       System.SysUtils.FixDateSeparator
 0001:00020DB0       System.SysUtils.TFormatSettings.TranslateDateFormat
 0001:000211E0       System.SysUtils.TFormatSettings.GetEraYearOffset
 0001:000212C0       System.SysUtils.ConvertAddr
 0001:000212D0       System.SysUtils.ExceptionErrorMessage
 0001:00021520       System.SysUtils.ShowException
 0001:000216F0       System.SysUtils.Exception.Create
 0001:00021790       System.SysUtils.Exception.CreateFmt
 0001:00021880       System.SysUtils.Exception.CreateRes
 0001:00021960       System.SysUtils.Exception.CreateRes
 0001:00021A00       System.SysUtils.Exception.CreateResFmt
 0001:00021B10       System.SysUtils.Exception.CreateResFmt
 0001:00021C20       System.SysUtils.Exception.CreateHelp
 0001:00021CD0       System.SysUtils.Exception.CreateFmtHelp
 0001:00021DD0       System.SysUtils.Exception.CreateResHelp
 0001:00021EC0       System.SysUtils.Exception.CreateResHelp
 0001:00021F70       System.SysUtils.Exception.CreateResFmtHelp
 0001:00022090       System.SysUtils.Exception.CreateResFmtHelp
 0001:000221B0       System.SysUtils.Exception.Destroy
 0001:00022210       System.SysUtils.Exception.GetBaseException
 0001:00022230       System.SysUtils.Exception.GetStackTrace
 0001:00022270       System.SysUtils.Exception.RaiseOuterException
 0001:00022290       System.SysUtils.Exception.ThrowOuterException
 0001:000222B0       System.SysUtils.Exception.RaisingException
 0001:000222F0       System.SysUtils.Exception.SetInnerException
 0001:00022330       System.SysUtils.Exception.SetStackInfo
 0001:00022340       System.SysUtils.Exception.ToString
 0001:000223C0       System.SysUtils.EHeapException.FreeInstance
 0001:000223E0       System.SysUtils.EHeapException.RaisingException
 0001:000223F0       System.SysUtils.CreateInOutError
 0001:00022480       System.SysUtils.ErrorHandler
 0001:00022520       System.SysUtils.AssertErrorHandler
 0001:000226A0       System.SysUtils.AbstractErrorHandler
 0001:000226D0       System.SysUtils.MapException
 0001:000227A0       System.SysUtils.GetExceptionClass
 0001:000227D0       System.SysUtils.CreateAVObject
 0001:00022A80       System.SysUtils.GetExceptionObject
 0001:00022BB0       System.SysUtils.RaiseExceptObject
 0001:00022BF0       System.SysUtils.ExceptHandler
 0001:00022C10       System.SysUtils.InitExceptions
 0001:00022CE0       System.SysUtils.DoneExceptions
 0001:00022DA0       System.SysUtils.Exception.Create@
 0001:00022DC0       System.SysUtils.Exception.Destroy@
 0001:00022DE0       System.SysUtils.WaitForSyncWaitObj
 0001:00022DF0       System.SysUtils.Push
 0001:00022E10       System.SysUtils.Pop
 0001:00022E30       System.SysUtils.NewSyncObj
 0001:00022EB0       System.SysUtils.FreeSyncObj
 0001:00022EF0       System.SysUtils.NewWaitObj
 0001:00022F50       System.SysUtils.FreeWaitObj
 0001:00022F90       System.SysUtils.WaitOrSignalObj
 0001:00022FD0       System.SysUtils.InitMonitorSupport
 0001:00022FF0       System.SysUtils.CleanStack
 0001:00023030       System.SysUtils.CleanEventList
 0001:000230B0       System.SysUtils.DoneMonitorSupport
 0001:00023100       System.SysUtils.NetWkstaGetInfo100
 0001:00023110       System.SysUtils.NetApiBufferFree
 0001:00023120       System.SysUtils.GetNetWkstaMajorMinor
 0001:000231A0       System.SysUtils.InitPlatformId
 0001:00023210       System.SysUtils.GetProductVersion
 0001:00023380       System.SysUtils.StrByteType
 0001:000233D0       System.SysUtils.StrCharLength
 0001:00023410       System.SysUtils.CharLength
 0001:00023460       System.SysUtils.AnsiStrPos
 0001:00023470       System.SysUtils.AnsiStrRScan
 0001:00023480       System.SysUtils.InitLeadBytes
 0001:00023510       System.SysUtils.InitSysLocale
 0001:000235D0       System.SysUtils.GetFormatSettings
 0001:00023660       System.SysUtils.ClearFormatSettings
 0001:000236B0       System.SysUtils.StringReplace
 0001:000241C0       System.SysUtils.HashNameMBCS
 0001:000242A0       System.SysUtils.HashName
 0001:00024330       System.SysUtils.ClearHashTables
 0001:00024380       System.SysUtils.ModuleUnloaded
 0001:00024520       System.SysUtils.FreeTerminateProcs
 0001:00024550       System.SysUtils.InitDriveSpacePtr
 0001:000245E0       System.SysUtils.FreeAndNil
 0001:00024600       System.SysUtils.EnumLocalesCallback
 0001:00024630       System.SysUtils.GetLocaleDataW
 0001:00024680       System.SysUtils.TLanguages.LocalesCallback
 0001:000249D0       System.SysUtils.TLanguages.Create
 0001:00024A90       System.SysUtils.TLanguages.Destroy
 0001:00024AD0       System.SysUtils.TLanguages.GetCount
 0001:00024B00       System.SysUtils.TLanguages.GetExt
 0001:00024B40       System.SysUtils.TLanguages.GetID
 0001:00024BE0       System.SysUtils.TLanguages.GetLocaleID
 0001:00024C00       System.SysUtils.TLanguages.GetLocaleName
 0001:00024C40       System.SysUtils.TLanguages.GetName
 0001:00024C80       System.SysUtils.TLanguages.GetNameFromLocaleID
 0001:00024CE0       System.SysUtils.TLanguages.GetLocaleIDFromLocaleName
 0001:00024D80       System.SysUtils.TLanguages.GetNameFromLCID
 0001:00024DB0       System.SysUtils.TLanguages.GetLocaleIDFromName
 0001:00024E40       System.SysUtils.TLanguages.IndexOf
 0001:00024EB0       System.SysUtils.TLanguages.IndexOf
 0001:00024F30       System.SysUtils.TLanguages.Destroy@
 0001:00024F70       System.SysUtils.Languages
 0001:00024FA0       System.SysUtils.TStringHelper.GetLength
 0001:00024FB0       System.SysUtils.TStringHelper.Compare
 0001:00024FE0       System.SysUtils.TStringHelper.InternalCompare
 0001:00025060       System.SysUtils.TStringHelper.InternalMapOptionsToFlags
 0001:000250F0       System.SysUtils.TStringHelper.InternalCompare
 0001:000251C0       System.SysUtils.TStringHelper.Compare
 0001:00025200       System.SysUtils.TStringHelper.Create
 0001:00025250       System.SysUtils.TStringHelper.LastDelimiter
 0001:000252E0       System.SysUtils.TStringHelper.Replace
 0001:000253A0       System.SysUtils.TStringHelper.Substring
 0001:000253E0       System.SysUtils.TStringHelper.Substring
 0001:00025410       System.SysUtils.TStringHelper.ToCharArray
 0001:00025450       System.SysUtils.TStringHelper.ToCharArray
 0001:000254B0       System.SysUtils.IsWindowsServer
 0001:00025510       System.SysUtils.TOSVersion.Create@
 0001:000258D0       System.SysUtils.TOSVersion.Check
 0001:00025DD0       System.SysUtils.Finalization
 0001:00025EF0       System.SysUtils.System.SysUtils
 0001:00025FC0       FullDebugMode_DLL_TestApp.GetFrameBasedStackTrace
 0001:00025FD0       FullDebugMode_DLL_TestApp.GetRawStackTrace
 0001:00025FE0       FullDebugMode_DLL_TestApp.LogStackTrace
 0001:00025FF0       FullDebugMode_DLL_TestApp.TestFrameBasedStackTrace
 0001:00026080       FullDebugMode_DLL_TestApp.TestRawStackTrace
 0001:00026110       FullDebugMode_DLL_TestApp.RunTest
 0001:00026130       FullDebugMode_DLL_TestApp.Finalization
 0001:00026140       FullDebugMode_DLL_TestApp.FullDebugMode_DLL_TestApp
 0002:00000000       System.ExitCode
 0002:00000008       System.ErrorAddr
 0002:00000010       System.FileMode
 0002:00000018       System.VarClearProc
 0002:00000020       System.VarCopyProc
 0002:00000028       System.VarToUStrProc
 0002:00000030       System.Default8087CW
 0002:00000034       System.DefaultMXCSR
 0002:00000038       System.DebugHook
 0002:00000039       System.JITEnable
 0002:0000003A       System.NoErrMsg
 0002:0000003B       System.DefaultTextLineBreakStyle
 0002:00000040       System.LibModuleList
 0002:00000048       System.ModuleUnloadList
 0002:00000050       System.AlternateWriteUnicodeStringProc
 0002:00000058       System.ObjCastGUID
 0002:00000068       System.LeakMessageHeader
 0002:00000070       System.SmallLeakDetail
 0002:00000078       System.LargeLeakDetail
 0002:00000080       System.BytesMessage
 0002:00000088       System.UnknownClassNameMsg
 0002:00000090       System.AnsiStringBlockMessage
 0002:00000098       System.UnicodeStringBlockMessage
 0002:000000A0       System.LeakMessageFooter
 0002:000000A8       System.LeakMessageTitle
 0002:000000B0       System.$unwind$_ZN6System10GetCmdShowEv
 0002:000000C0       System.SmallBlockTypes
 0002:00000C40       System.MinimumBlockAlignment
 0002:00000C48       System.MemoryManager
 0002:00000C78       System.$unwind$_ZN6System5Move8EPKvPvx
 0002:00000C7C       System.$unwind$_ZN6System6Move24EPKvPvx
 0002:00000C80       System.$unwind$_ZN6System6Move40EPKvPvx
 0002:00000C84       System.$unwind$_ZN6System6Move56EPKvPvx
 0002:00000C88       System.$unwind$_ZN6System9MoveX16LPEPKvPvx
 0002:00000C8C       System.$unwind$_ZN6System16LockMediumBlocksEv
 0002:00000C94       System.$unwind$_ZN6System21RemoveMediumFreeBlockEPNS_16TMediumFreeBlockE
 0002:00000C98       System.$unwind$_ZN6System24InsertMediumBlockIntoBinEPNS_16TMediumFreeBlockEj
 0002:00000C9C       System.$unwind$_ZN6System32BinMediumSequentialFeedRemainderEv
 0002:00000CA8       System.$unwind$_ZN6System32AllocNewSequentialFeedMediumPoolEj
 0002:00000CB0       System.$unwind$_ZN6System15LockLargeBlocksEv
 0002:00000CB8       System.$unwind$_ZN6System18AllocateLargeBlockEy
 0002:00000CC8       System.$unwind$_ZN6System14FreeLargeBlockEPv
 0002:00000CDC       System.$unwind$_ZN6System20ReallocateLargeBlockEPvy
 0002:00000CF0       System.$unwind$_ZN6System9SysGetMemEx
 0002:00000D00       System.$unwind$_ZN6System10SysFreeMemEPv
 0002:00000D10       System.$unwind$_ZN6System13SysReallocMemEPvx
 0002:00000D24       System.$unwind$_ZN6System11SysAllocMemEx
 0002:00000D30       System.$unwind$_ZN6System11ShowMessageEPcS0_
 0002:00000D40       System.$unwind$_ZN6System15NextMediumBlockEPv
 0002:00000D44       System.$unwind$_ZN6System25GetFirstMediumBlockInPoolEPNS_22TMediumBlockPoolHeaderE
 0002:00000D48       System.$unwind$_ZN6System31GetFirstAndLastSmallBlockInPoolEPNS_21TSmallBlockPoolHeaderERPvS3_
 0002:00000D4C       System.$unwind$_ZN6System18NativeUIntToStrBufEyPc
 0002:00000D5C       System.$unwind$_ZN6System20AppendStringToBufferEPKcS1_j
 0002:00000D68       System.$unwind$_ZN6System23AppendClassNameToBufferEPNS_10TMetaClassEPc
 0002:00000D70       System.$unwind$_ZZN6System14GetObjectClassEPvE17IsValidVMTAddressS0_S0_
 0002:00000D7C       System.$unwind$_ZZN6System14GetObjectClassEPvE20InternalIsValidClassS0_S0_i
 0002:00000D90       System.$unwind$_ZN6System14GetObjectClassEPv
 0002:00000D9C       System.$unwind$_ZN6System27LockExpectedMemoryLeaksListEv
 0002:00000DA4       System.$unwind$_ZN6System29SysRegisterExpectedMemoryLeakEPv
 0002:00000DAC       System.$unwind$_ZN6System31SysUnregisterExpectedMemoryLeakEPv
 0002:00000DB8       System.$unwind$_ZZN6System18ScanForMemoryLeaksEvE27CheckSmallBlockPoolForLeaksPvPNS_21TSmallBlockPoolHeaderE
 0002:00000DCC       System.$unwind$_ZN6System18ScanForMemoryLeaksEv
 0002:00000DE4       System.$unwind$_ZN6System25BuildBlockTypeLookupTableEv
 0002:00000DE8       System.$unwind$_ZN6System23InitializeMemoryManagerEv
 0002:00000DF0       System.$unwind$_ZN6System13FreeAllMemoryEv
 0002:00000DF8       System.$unwind$_ZN6System21FinalizeMemoryManagerEv
 0002:00000E00       System.$unwind$_ZN6System8AllocMemEx
 0002:00000E08       System.$unwind$_ZN6System7_GetMemEx
 0002:00000E10       System.$unwind$_ZN6System8_FreeMemEPv
 0002:00000E18       System.$unwind$_ZN6System11_ReallocMemERPvx
 0002:00000E24       System.reMap
 0002:00000E44       System.$unwind$_ZN6System18AllocateRaiseFrameEv
 0002:00000E54       System.$unwind$_ZN6System17ReleaseRaiseFrameEPNS_11TRaiseFrameE
 0002:00000E60       System.$unwind$_ZN6System12ExceptObjectEv
 0002:00000E68       System.$unwind$_ZN6System10ExceptAddrEv
 0002:00000E70       System.$unwind$_ZN6System22AcquireExceptionObjectEv
 0002:00000E78       System.$unwind$_ZN6System10RunErrorAtEiPv
 0002:00000E80       System.$unwind$_ZN6System7ErrorAtEhPv
 0002:00000E8C       System.$unwind$_ZN6System5ErrorENS_13TRuntimeErrorE
 0002:00000E98       System.$unwind$_ZN6System8__IOTestEv
 0002:00000EA4       System.$unwind$_ZN6System11SetInOutResEi
 0002:00000EAC       System.$unwind$_ZN6System8IOResultEv
 0002:00000EB4       System.$unwind$_ZN6System4MoveEPKvPvx
 0002:00000EB8       System.$unwind$_ZN6System14FSetExceptFlagEjj
 0002:00000EC4       System.$unwind$_ZN6System12FRaiseExceptEjb
 0002:00000ECC       System.$unwind$_ZN6System14FGetExceptMaskEj
 0002:00000ED4       System.$unwind$_ZN6System9Get8087CWEv
 0002:00000ED8       System.$unwind$_ZN6System21SetMXCSRExceptionFlagEj
 0002:00000EE4       System.$unwind$_ZN6System8GetMXCSREv
 0002:00000EE8       System.ABSMASK
 0002:00000EF0       System.$unwind$_ZN6System6_RoundEe
 0002:00000EF4       System.$unwind$_ZN6System6_TruncEe
 0002:00000EF8       System.$unwind$_ZN6System4_AbsEe
 0002:00000EFC       System.$unwind$_ZN6System17__FlushMBCSBufferERNS_8TTextRecE
 0002:00000F00       System.$unwind$_ZN6System8OpenTextERNS_8TTextRecEt
 0002:00000F0C       System.$unwind$_ZN6System10_ResetTextERNS_8TTextRecE
 0002:00000F14       System.$unwind$_ZN6System11_RewritTextERNS_8TTextRecE
 0002:00000F1C       System.$unwind$_ZN6System6TextInERNS_8TTextRecE
 0002:00000F24       System.$unwind$_ZN6System11FileNOPProcEPv
 0002:00000F28       System.$unwind$_ZN6System7TextOutERNS_8TTextRecE
 0002:00000F34       System.$unwind$_ZN6System13InternalCloseEy
 0002:00000F3C       System.$unwind$_ZN6System9TextCloseERNS_8TTextRecE
 0002:00000F44       System.$unwind$_ZN6System15TextOpenCleanupERNS_8TTextRecE
 0002:00000F4C       System.$unwind$_ZN6System8TextOpenERNS_8TTextRecE
 0002:00000F5C       System.$unwind$_ZN6System13InternalFlushERNS_8TTextRecEPFiS1_E
 0002:00000F64       System.$unwind$_ZN6System5FlushERNS_8TextfileE
 0002:00000F6C       System.$unwind$_ZN6System6_FlushERNS_8TTextRecE
 0002:00000F78       System.Pow10Tab0
 0002:00001078       System.Pow10Tab1
 0002:000010B8       System.$unwind$_ZN6System6_CloseERNS_8TTextRecE
 0002:000010C4       System.$unwind$_ZN6System9_FillCharEPvxc
 0002:000010C8       System.$unwind$_ZN6System15TryOpenForInputERNS_8TTextRecE
 0002:000010D0       System.$unwind$_ZN6System9_ReadByteERNS_8TTextRecERb
 0002:000010DC       System.$unwind$_ZN6System9_ReadWordERNS_8TTextRecERb
 0002:000010E8       System.$unwind$_ZN6System12_GetAnsiCharERNS_8TTextRecERbt
 0002:00001118       System.$unwind$_ZN6System13_SkipAnsiCharERNS_8TTextRecE
 0002:0000111C       System.$unwind$_ZN6System12_GetWideCharERNS_8TTextRecERb
 0002:00001150       System.$unwind$_ZN6System13_SkipWideCharERNS_8TTextRecE
 0002:00001154       System.$unwind$_ZN6System7_ReadLnERNS_8TTextRecE
 0002:00001164       System.$unwind$_ZN6System8_ValLongENS_13UnicodeStringERi
 0002:00001174       System.$unwind$_ZN6System16TryOpenForOutputERNS_8TTextRecE
 0002:0000117C       System.$unwind$_ZN6System11_WriteBytesERNS_8TTextRecEPKvi
 0002:0000118C       System.$unwind$_ZN6System12_WriteSpacesERNS_8TTextRecEi
 0002:000011BC       System.$unwind$_ZZN6System11_Write0CharERNS_8TTextRecEcE26WriteUnicodeFromMBCSBufferPv
 0002:000011EC       System.$unwind$_ZN6System11_Write0CharERNS_8TTextRecEc
 0002:000011F8       System.$unwind$_ZN6System14_Write0CStringERNS_8TTextRecEPc
 0002:00001200       System.$unwind$_ZN6System13_WriteCStringERNS_8TTextRecEPci
 0002:00001230       System.$unwind$_ZN6System14_Write0LStringERNS_8TTextRecENS_11AnsiStringTILt0EEE
 0002:00001260       System.$unwind$_ZN6System13_WriteLStringERNS_8TTextRecENS_11AnsiStringTILt0EEEi
 0002:00001290       System.$unwind$_ZN6System14_Write0UStringERNS_8TTextRecENS_13UnicodeStringE
 0002:00001298       System.$unwind$_ZN6System13_WriteUStringERNS_8TTextRecENS_13UnicodeStringEi
 0002:000012C8       System.$unwind$_ZN6System8_WriteLnERNS_8TTextRecE
 0002:000012D4       System.$unwind$_ZN6System7Power10Eei
 0002:000012DC       System.$unwind$_ZN6System9_GetCPUIDEjj
 0002:000012E0       System.$unwind$_ZN6System8GetCPUIDEjj
 0002:000012E8       System.$unwind$_ZN6System15InitializeCPUIDEv
 0002:000012F8       System.$unwind$_ZN6System22_InitializeControlWordEv
 0002:00001300       System.$unwind$_ZN6System8_FpuInitEv
 0002:00001304       System.$unwind$_ZN6System8_IntOverEv
 0002:00001310       System.$unwind$_ZN6System7TObject9ClassTypeEv
 0002:00001314       System.$unwind$_ZN6System7TObject9ClassNameEv
 0002:0000131C       System.$unwind$_ZN6System7TObject18QualifiedClassNameEv
 0002:0000134C       System.$unwind$_ZN6System7TObject11ClassNameIsENS_13UnicodeStringE
 0002:00001380       System.$unwind$_ZN6System7TObject11ClassParentEv
 0002:00001384       System.$unwind$_ZN6System7TObject12InstanceSizeEv
 0002:00001388       System.$unwind$_ZN6System7TObject11NewInstanceEv
 0002:00001390       System.$unwind$_ZN6System7TObject12FreeInstanceEv
 0002:00001398       System.$unwind$_ZN6System7TObject9CPP_ABI_1Ev
 0002:0000139C       System.$unwind$_ZN6System7TObject9CPP_ABI_2Ev
 0002:000013A0       System.$unwind$_ZN6System7TObject9CPP_ABI_3Ev
 0002:000013A4       System.$unwind$_ZN6System7TObjectC3Ev
 0002:000013E0       System.$unwind$_ZN6System7TObjectD0Ev
 0002:000013EC       System.$unwind$_ZN6System7TObject4FreeEv
 0002:000013F4       System.$unwind$_ZN6System7TObject9DisposeOfEv
 0002:000013FC       System.$unwind$_ZN6System7TObject17GetInterfaceTableEv
 0002:00001400       System.$unwind$_ZN6System7TObject12InitInstanceEPv
 0002:0000140C       System.$unwind$_ZN6System7TObject15CleanupInstanceEv
 0002:00001418       System.$unwind$_ZN6System16InvokeImplGetterEPNS_7TObjectEy
 0002:00001424       System.$unwind$_ZN6System7TObject6EqualsEPS0_
 0002:00001428       System.$unwind$_ZN6System7TObject11GetHashCodeEv
 0002:0000142C       System.$unwind$_ZN6System7TObject12GetInterfaceERK5_GUIDPv
 0002:0000145C       System.$unwind$_ZN6System7TObject17GetInterfaceEntryERK5_GUID
 0002:0000146C       System.$unwind$_ZN6System7TObject8UnitNameEv
 0002:0000147C       System.$unwind$_ZN6System7TObject9UnitScopeEv
 0002:0000148C       System.$unwind$_ZN6System8_IsClassEPNS_7TObjectEPNS_10TMetaClassE
 0002:00001494       System.$unwind$_ZN6System8_AsClassEPNS_7TObjectEPNS_10TMetaClassE
 0002:000014A0       System.$unwind$_ZN6System12_IntfAsClassENS_15DelphiInterfaceINS_10IInterfaceEEEPNS_10TMetaClassE
 0002:000014AC       System.$unwind$_ZN6System13GetDynaMethodEPNS_10TMetaClassEs
 0002:000014B0       System.$unwind$_ZN6System7TObject12InheritsFromEPNS_10TMetaClassE
 0002:000014B4       System.$unwind$_ZN6System7TObject9ClassInfoEv
 0002:000014B8       System.$unwind$_ZN6System7TObject17SafeCallExceptionEPS0_Pv
 0002:000014BC       System.$unwind$_ZN6System7TObject8ToStringEv
 0002:000014C4       System.$unwind$_ZN6System7TObject14DefaultHandlerEPv
 0002:000014C8       System.$unwind$_ZN6System7TObject17AfterConstructionEv
 0002:000014CC       System.$unwind$_ZN6System7TObject17BeforeDestructionEv
 0002:000014D0       System.$unwind$_ZN6System7TObject8DispatchEPv
 0002:000014E0       System.$unwind$_ZN6System11UTF8CompareERKNS_11SmallStringILh255EEES3_
 0002:000014F0       System.$unwind$_ZN6System7TObject13MethodAddressERKNS_11SmallStringILh255EEE
 0002:00001500       System.$unwind$_ZN6System23UTF8ShortStringToStringERKNS_11SmallStringILh255EEE
 0002:00001508       System.$unwind$_ZN6System7TObject13MethodAddressENS_13UnicodeStringE
 0002:00001518       System.$unwind$_ZN6System7TObject10MethodNameEPv
 0002:00001524       System.$unwind$_ZN6System7TObject12FieldAddressERKNS_11SmallStringILh255EEE
 0002:00001534       System.$unwind$_ZN6System7TObject12FieldAddressENS_13UnicodeStringE
 0002:00001544       System.$unwind$_ZN6System12_ClassCreateEPva
 0002:0000154C       System.$unwind$_ZN6System13_ClassDestroyEPNS_7TObjectE
 0002:00001554       System.$unwind$_ZN6System18_AfterConstructionEPNS_7TObjectE
 0002:00001590       System.$unwind$_ZN6System18_BeforeDestructionEPNS_7TObjectEa
 0002:00001598       System.$unwind$_ZN6System8TMonitor9TSpinWait9SpinCycleEv
 0002:000015A0       System.$unwind$_ZN6System8TMonitor9TSpinLock5EnterEv
 0002:000015AC       System.$unwind$_ZN6System8TMonitor9TSpinLock4ExitEv
 0002:000015B0       System.$unwind$_ZN6System8TMonitor4SpinEi
 0002:000015B4       System.$unwind$_ZN6System8TMonitor16GetCacheLineSizeEv
 0002:000015E4       System.$unwind$_ZN6System8TMonitor19CheckMonitorSupportEv
 0002:000015EC       System.$unwind$_ZN6System8TMonitor17CheckOwningThreadEv
 0002:000015F4       System.$unwind$_ZN6System8TMonitor6CreateEv
 0002:000015FC       System.$unwind$_ZN6System8TMonitor7DestroyEPNS_7TObjectE
 0002:00001604       System.$unwind$_ZN6System8TMonitor7DestroyEv
 0002:00001610       System.$unwind$_ZN6System8TMonitor5EnterEPNS_7TObjectE
 0002:00001618       System.$unwind$_ZN6System8TMonitor5EnterEPNS_7TObjectEj
 0002:00001624       System.$unwind$_ZN6System8TMonitor13DequeueWaiterEv
 0002:00001654       System.$unwind$_ZN6System8TMonitor5EnterEj
 0002:00001668       System.$unwind$_ZN6System8TMonitor4ExitEv
 0002:00001670       System.$unwind$_ZN6System8TMonitor4ExitEPNS_7TObjectE
 0002:00001678       System.$unwind$_ZN6System8TMonitor8GetEventEv
 0002:00001688       System.$unwind$_ZN6System8TMonitor15GetFieldAddressEPNS_7TObjectE
 0002:0000168C       System.$unwind$_ZN6System8TMonitor10GetMonitorEPNS_7TObjectE
 0002:0000169C       System.$unwind$_ZN6System8TMonitor5PulseEv
 0002:000016A4       System.$unwind$_ZN6System8TMonitor5PulseEPNS_7TObjectE
 0002:000016AC       System.$unwind$_ZN6System8TMonitor8PulseAllEv
 0002:000016B4       System.$unwind$_ZN6System8TMonitor8PulseAllEPNS_7TObjectE
 0002:000016BC       System.$unwind$_ZN6System8TMonitor11QueueWaiterERNS0_14TWaitingThreadE
 0002:000016EC       System.$unwind$_ZN6System8TMonitor12RemoveWaiterERNS0_14TWaitingThreadE
 0002:0000171C       System.$unwind$_ZN6System8TMonitor12SetSpinCountEPNS_7TObjectEi
 0002:00001724       System.$unwind$_ZN6System8TMonitor8TryEnterEPNS_7TObjectE
 0002:0000172C       System.$unwind$_ZN6System8TMonitor8TryEnterEv
 0002:00001734       System.$unwind$_ZN6System8TMonitor4WaitEPS0_j
 0002:00001764       System.$unwind$_ZN6System8TMonitor4WaitEPNS_7TObjectEj
 0002:00001770       System.$unwind$_ZN6System8TMonitor4WaitEPNS_7TObjectES2_j
 0002:0000177C       System.$unwind$_ZN6System13NotifyReRaiseEPNS_7TObjectEPv
 0002:00001784       System.$unwind$_ZN6System24NotifyNonDelphiExceptionEPvPNS_8TContextE
 0002:00001790       System.$unwind$_ZN6System12NotifyExceptEy
 0002:00001798       System.$unwind$_ZN6System14NotifyOnExceptEy
 0002:000017A0       System.$unwind$_ZN6System15NotifyAnyExceptEy
 0002:000017A8       System.$unwind$_ZN6System19NotifyExceptFinallyEy
 0002:000017B0       System.$unwind$_ZN6System15NotifyTerminateEy
 0002:000017B8       System.$unwind$_ZN6System15NotifyUnhandledEPvS0_
 0002:000017C4       System.$unwind$_ZN6System24FindOnExceptionDescEntryEPNS_18TDispatcherContextEPvPNS_8TExcDescE
 0002:000017D4       System.$unwind$_ZN6System23_DelphiExceptionHandlerEPNS_16TExceptionRecordEyPvS2_
 0002:00001808       System.$unwind$_ZN6System14_RaiseAtExceptEPNS_7TObjectEPv
 0002:00001818       System.$unwind$_ZN6System12_RaiseExceptEPNS_7TObjectE
 0002:00001824       System.$unwind$_ZN6System11_RaiseAgainEv
 0002:00001830       System.$unwind$_ZN6System17_DestroyExceptionEP18TExceptionPointersy
 0002:00001840       System.$unwind$_ZN6System11_DoneExceptEv
 0002:00001850       System.errCaption
 0002:00001858       System.$unwind$_ZN6System13FinalizeUnitsEv
 0002:00001894       System.$unwind$_ZN6System9InitUnitsEv
 0002:000018D0       System.$unwind$_ZN6System9_StartExeEPNS_16PackageInfoTableEPNS_10TLibModuleE
 0002:000018D8       System.$unwind$_ZN6System14LoadResStringAEPNS_13TResStringRecEt
 0002:00001908       System.$unwind$_ZN6System14LoadResStringWEPNS_13TResStringRecE
 0002:00001938       System.$unwind$_ZN6System14LoadResStringUEPNS_13TResStringRecE
 0002:00001940       System.runErrMsg
 0002:00001968       System.$unwind$_ZN6System21_InitResStringImportsEPv
 0002:0000199C       System.$unwind$_ZN6System12_InitImportsEPv
 0002:000019A0       System.$unwind$_ZN6System25_FinalizeResStringImportsEPv
 0002:000019AC       System.hexDigits
 0002:000019BC       System.$unwind$_ZN6System16MakeErrorMessageEv
 0002:000019C0       System.$unwind$_ZN6System16_ExitDllLongJumpERNS_17__TExitDllJumpBufEi
 0002:000019C4       System.$unwind$_ZN6System7ExitDllEPNS_12TInitContextE
 0002:000019D4       System.$unwind$_ZN6System17WriteErrorMessageEv
 0002:000019DC       System.$unwind$_ZN6System6_Halt0Ev
 0002:000019E8       System.$unwind$_ZN6System5_HaltEi
 0002:000019F0       System.$unwind$_ZN6System9_RunErrorEh
 0002:000019FC       System.$unwind$_ZN6System19_UnhandledExceptionEv
 0002:00001A08       System.$unwind$_ZN6System17_NewUnicodeStringEi
 0002:00001A10       System.$unwind$_ZN6System14_NewAnsiStringEit
 0002:00001A1C       System.$unwind$_ZN6System9WStrErrorEv
 0002:00001A28       System.$unwind$_ZN6System8_UStrClrEPv
 0002:00001A30       System.$unwind$_ZN6System8_LStrClrEPv
 0002:00001A38       System.$unwind$_ZN6System8_WStrClrEPv
 0002:00001A44       System.$unwind$_ZN6System13_UStrArrayClrEPvi
 0002:00001A50       System.$unwind$_ZN6System13_LStrArrayClrEPvi
 0002:00001A5C       System.$unwind$_ZN6System13_WStrArrayClrEPvi
 0002:00001A6C       System.$unwind$_ZN6System11_UStrAddRefEPv
 0002:00001A70       System.$unwind$_ZN6System13CharFromWCharEPciPKwii
 0002:00001A78       System.$unwind$_ZN6System13CharFromWCharEPciPKwi
 0002:00001A80       System.$unwind$_ZN6System13WCharFromCharEPwiPKcii
 0002:00001A88       System.$unwind$_ZN6System18_UStrFromPWCharLenERNS_13UnicodeStringEPwi
 0002:00001A98       System.$unwind$_ZN6System18_WStrFromPWCharLenERNS_10WideStringEPwi
 0002:00001AA4       System.$unwind$_ZN6System17_LStrFromPCharLenERNS_11AnsiStringTILt0EEEPcit
 0002:00001AB4       System.$unwind$_ZN6System24InternalUStrFromPCharLenERNS_13UnicodeStringEPcii
 0002:00001AC8       System.$unwind$_ZN6System17_UStrFromPCharLenERNS_13UnicodeStringEPci
 0002:00001AD0       System.$unwind$_ZN6System18_LStrFromPWCharLenERNS_11AnsiStringTILt0EEEPwit
 0002:00001AE0       System.$unwind$_ZN6System8_UStrAsgERNS_13UnicodeStringES0_
 0002:00001AF4       System.$unwind$_ZN6System9_UStrLAsgERNS_13UnicodeStringES0_
 0002:00001B04       System.$unwind$_ZN6System8_WStrAsgERNS_10WideStringES0_
 0002:00001B0C       System.$unwind$_ZN6System8_LStrAsgERNS_11AnsiStringTILt0EEES1_
 0002:00001B20       System.$unwind$_ZN6System8_UStrLenENS_13UnicodeStringE
 0002:00001B24       System.$unwind$_ZN6System8_LStrLenENS_11AnsiStringTILt65535EEE
 0002:00001B28       System.$unwind$_ZN6System9_PCharLenEPc
 0002:00001B2C       System.$unwind$_ZN6System10_PWCharLenEPw
 0002:00001B30       System.$unwind$_ZN6System21InternalUniqueStringUERNS_13UnicodeStringE
 0002:00001B3C       System.$unwind$_ZN6System21InternalUniqueStringAERNS_11AnsiStringTILt0EEE
 0002:00001B48       System.$unwind$_ZN6System14_UniqueStringUERNS_13UnicodeStringE
 0002:00001B50       System.$unwind$_ZN6System14_UniqueStringAERNS_11AnsiStringTILt0EEE
 0002:00001B58       System.$unwind$_ZN6System12UniqueStringERNS_13UnicodeStringE
 0002:00001B60       System.$unwind$_ZN6System8_AStrCmpEPKcS1_x
 0002:00001B64       System.$unwind$_ZN6System5_CopyERKNS_11SmallStringILh255EEEii
 0002:00001B68       System.$unwind$_ZN6System14_LStrFromPCharERNS_11AnsiStringTILt0EEEPct
 0002:00001B70       System.$unwind$_ZN6System15_LStrFromPWCharERNS_11AnsiStringTILt0EEEPwt
 0002:00001B78       System.EmptyStringA
 0002:00001B80       System.EmptyStringW
 0002:00001B88       System.$unwind$_ZN6System12_LStrToPCharENS_11AnsiStringTILt0EEE
 0002:00001B90       System.$unwind$_ZN6System14_LStrSetLengthERNS_11AnsiStringTILt0EEEit
 0002:00001BA4       System.$unwind$_ZN6System13_LStrFromUStrERNS_11AnsiStringTILt0EEENS_13UnicodeStringEt
 0002:00001BAC       System.$unwind$_ZN6System16InternalUStrCatNERNS_13UnicodeStringEiPS0_
 0002:00001BBC       System.$unwind$_ZN6System14_WCharToStringEPNS_11SmallStringILh255EEEwi
 0002:00001BCC       System.$unwind$_ZN6System13_UStrToPWCharENS_13UnicodeStringE
 0002:00001BD4       System.$unwind$_ZN6System14_UStrFromWCharERNS_13UnicodeStringEw
 0002:00001BDC       System.$unwind$_ZN6System14_UStrFromPCharERNS_13UnicodeStringEPc
 0002:00001BE8       System.$unwind$_ZN6System15_UStrFromPWCharERNS_13UnicodeStringEPw
 0002:00001BF4       System.$unwind$_ZN6System15_UStrFromWArrayERNS_13UnicodeStringEPwi
 0002:00001BFC       System.$unwind$_ZN6System13_UStrFromLStrERNS_13UnicodeStringENS_11AnsiStringTILt0EEE
 0002:00001C04       System.$unwind$_ZN6System13_WStrFromUStrERNS_10WideStringENS_13UnicodeStringE
 0002:00001C0C       System.$unwind$_ZN6System15_UStrFromStringERNS_13UnicodeStringERKNS_11SmallStringILh255EEE
 0002:00001C14       System.$unwind$_ZN6System14_UStrSetLengthERNS_13UnicodeStringEi
 0002:00001C28       System.$unwind$_ZN6System8_UStrCatERNS_13UnicodeStringES0_
 0002:00001C38       System.$unwind$_ZN6System9_UStrCat3ERNS_13UnicodeStringES0_S0_
 0002:00001C48       System.$unwind$_ZN6System9_UStrCatNERNS_13UnicodeStringEi
 0002:00001C54       System.$unwind$_ZN6System8_UStrCmpENS_13UnicodeStringES0_
 0002:00001C64       System.$unwind$_ZN6System10_UStrEqualENS_13UnicodeStringES0_
 0002:00001C6C       System.$unwind$_ZN6System9_UStrCopyENS_13UnicodeStringEii
 0002:00001C74       System.$unwind$_ZN6System3PosERKNS_11SmallStringILh255EEES3_i
 0002:00001C7C       System.$unwind$_ZN6System3PosENS_13UnicodeStringES0_i
 0002:00001C88       System.$unwind$_ZN6System11SetCodePageERNS_11AnsiStringTILt65535EEEtb
 0002:00001CC0       System.$unwind$_ZN6System17_InitializeRecordEPvS0_
 0002:00001CCC       System.$unwind$_ZN6System16_InitializeArrayEPvS0_y
 0002:00001CDC       System.$unwind$_ZN6System15_FinalizeRecordEPvS0_
 0002:00001CEC       System.$unwind$_ZN6System7_VarClrER8TVarData
 0002:00001CF4       System.$unwind$_ZN6System14_FinalizeArrayEPvS0_y
 0002:00001D04       System.$unwind$_ZN6System9_FinalizeEPvS0_
 0002:00001D0C       System.$unwind$_ZN6System8_VarCopyER8TVarDataRKS0_
 0002:00001D14       System.$unwind$_ZN6System11_CopyRecordEPvS0_S0_
 0002:00001D24       System.$unwind$_ZN6System10MoveRecordEPvS0_S0_
 0002:00001D34       System.$unwind$_ZN6System10_CopyArrayEPvS0_S0_y
 0002:00001D44       System.$unwind$_ZN6System9MoveArrayEPvS0_S0_x
 0002:00001D54       System.$unwind$_ZN6System8_DisposeEPvS0_
 0002:00001D5C       System.$unwind$_ZN6System13FinalizeArrayEPvS0_y
 0002:00001D64       System.$unwind$_ZN6System18_DispCallByIDErrorEPvNS_15DelphiInterfaceI9IDispatchEEPNS_9TDispDescES0_
 0002:00001D70       System.$unwind$_ZN6System15_DynArrayLengthEPKv
 0002:00001D74       System.$unwind$_ZN6System18InternalHasWeakRefEPNS_9TTypeInfoE
 0002:00001D84       System.$unwind$_ZN6System13SysHasWeakRefEPKv
 0002:00001D90       System.$unwind$_ZN6System17DynArraySetLengthERPvS0_xPx
 0002:00001DD0       System.$unwind$_ZN6System18_DynArraySetLengthERPvS0_x
 0002:00001DDC       System.$unwind$_ZN6System13_DynArrayCopyERPvS0_S0_
 0002:00001DE4       System.$unwind$_ZN6System18_DynArrayCopyRangeERPvS0_S0_xx
 0002:00001DF4       System.$unwind$_ZN6System14_DynArrayClearERPvS0_
 0002:00001E00       System.$unwind$_ZN6System12_DynArrayAsgERPvS0_S0_
 0002:00001E0C       System.$unwind$_ZN6System15_DynArrayAddRefEPv
 0002:00001E10       System.$unwind$_ZN6System23DelayLoadResourceModuleEPNS_10TLibModuleE
 0002:00001E20       System.$unwind$_ZN6System21FindResourceHInstanceEy
 0002:00001E28       System.LocaleTable
 0002:00002238       System.PreferredLanguagesOverride
 0002:00002240       System.$unwind$_ZN6System20InitializeLocaleDataEv
 0002:00002248       System.$unwind$_ZN6System18FinalizeLocaleDateEv
 0002:00002250       System.$unwind$_ZN6System10StringCopyEPwiS0_
 0002:00002254       System.$unwind$_ZZN6System14GetUILanguagesEtE13LastHyphenPosPvNS_13UnicodeStringE
 0002:00002284       System.$unwind$_ZZN6System14GetUILanguagesEtE23ConvertResToUILanguagesPvPc
 0002:000022B4       System.$unwind$_ZZN6System14GetUILanguagesEtE24GetPreferredLangForOldOSPvt
 0002:000022E8       System.$unwind$_ZZN6System14GetUILanguagesEtE26CheckDifferentLanguageListPvPwS1_i
 0002:000022EC       System.$unwind$_ZZN6System14GetUILanguagesEtE17ThreadUILanguagesPvRi
 0002:000022FC       System.$unwind$_ZZN6System14GetUILanguagesEtE24GetPreferredLangForNewOSPvt
 0002:00002310       System.$unwind$_ZN6System14GetUILanguagesEt
 0002:00002340       System.$unwind$_ZZN6System25InternalGetLocaleOverrideENS_13UnicodeStringEE6FindBSPvPw
 0002:00002348       System.$unwind$_ZZN6System25InternalGetLocaleOverrideENS_13UnicodeStringEE10ToLongPathPvPwi
 0002:00002360       System.$unwind$_ZN6System25InternalGetLocaleOverrideENS_13UnicodeStringE
 0002:000023AC       System.$unwind$_ZN6System17GetLocaleOverrideENS_13UnicodeStringE
 0002:000023DC       System.$unwind$_ZN6System17SetLocaleOverrideENS_13UnicodeStringE
 0002:000023E8       System.$unwind$_ZZN6System21GetResourceModuleNameENS_13UnicodeStringES0_E16ResouceDLLExistsPvS0_
 0002:00002418       System.$unwind$_ZZN6System21GetResourceModuleNameENS_13UnicodeStringES0_E16LoadLanguageListPvS0_S0_
 0002:0000244C       System.$unwind$_ZZN6System21GetResourceModuleNameENS_13UnicodeStringES0_E18Load3LettersModulePvS0_
 0002:0000247C       System.$unwind$_ZN6System21GetResourceModuleNameENS_13UnicodeStringES0_
 0002:000024AC       System.$unwind$_ZN6System18LoadResourceModuleEPwb
 0002:000024DC       System.$unwind$_ZN6System19EnumResourceModulesEPFbyPvES0_
 0002:000024E8       System.$unwind$_ZN6System19AddModuleUnloadProcEPFvyE
 0002:000024F0       System.$unwind$_ZN6System22RemoveModuleUnloadProcEPFvyE
 0002:000024F8       System.$unwind$_ZN6System18NotifyModuleUnloadEy
 0002:00002534       System.$unwind$_ZN6System14RegisterModuleEPNS_10TLibModuleE
 0002:00002538       System.$unwind$_ZN6System16UnregisterModuleEPNS_10TLibModuleE
 0002:00002564       System.$unwind$_ZN6System10_IntfClearERNS_15DelphiInterfaceINS_10IInterfaceEEE
 0002:00002570       System.$unwind$_ZN6System9_IntfCopyERNS_15DelphiInterfaceINS_10IInterfaceEEES2_
 0002:00002580       System.$unwind$_ZN6System9_IntfCastERNS_15DelphiInterfaceINS_10IInterfaceEEES2_RK5_GUID
 0002:00002590       System.$unwind$_ZN6System11_IntfAddRefENS_15DelphiInterfaceINS_10IInterfaceEEE
 0002:00002598       System.$unwind$_ZN6System9TInstItem6CreateEv
 0002:000025A0       System.$unwind$_ZN6System9TInstItem13ClearWeakRefsEv
 0002:000025AC       System.$unwind$_ZN6System9TInstItem4LockEv
 0002:000025B4       System.$unwind$_ZN6System9TInstItem6UnlockEv
 0002:000025BC       System.$unwind$_ZN6System9TInstItem7DestroyEv
 0002:000025C4       System.$unwind$_ZN6System9TInstItem4FreeEv
 0002:000025D0       System.$unwind$_ZN6System9TInstItem11RegisterRefERNS_11StaticArrayINS_12DynamicArrayIPPvEELi31EEES3_
 0002:00002600       System.$unwind$_ZN6System9TInstItem13UnregisterRefERNS_11StaticArrayINS_12DynamicArrayIPPvEELi31EEES3_
 0002:00002630       System.$unwind$_ZN6System9TInstItem15RegisterWeakRefEPv
 0002:00002638       System.$unwind$_ZN6System9TInstItem17UnregisterWeakRefEPv
 0002:00002640       System.$unwind$_ZN6System9TInstItem21RegisterWeakMethodRefEPv
 0002:00002648       System.$unwind$_ZN6System9TInstItem23UnregisterWeakMethodRefEPv
 0002:00002650       System.$unwind$_ZN6System11TInstBucket11AddInstItemEiPNS_9TInstItemE
 0002:00002664       System.$unwind$_ZN6System11TInstBucket12FindInstItemEPvRi
 0002:00002674       System.$unwind$_ZN6System11TInstBucket8FinalizeEv
 0002:00002680       System.$unwind$_ZN6System11TInstBucket10InitializeEv
 0002:00002688       System.$unwind$_ZN6System11TInstBucket4LockEv
 0002:00002690       System.$unwind$_ZN6System11TInstBucket14RemoveInstItemEPv
 0002:000026A0       System.$unwind$_ZN6System11TInstBucket6UnlockEv
 0002:000026A8       System.$unwind$_ZN6System12TInstHashMap12FreeInstItemEPNS_9TInstItemE
 0002:000026B0       System.$unwind$_ZN6System12TInstHashMap11NewInstItemEPv
 0002:000026B8       System.$unwind$_ZN6System12TInstHashMap11PopInstItemEv
 0002:000026BC       System.$unwind$_ZN6System12TInstHashMap8FinalizeEv
 0002:000026C8       System.$unwind$_ZN6System12TInstHashMap10InitializeEv
 0002:000026F8       System.$unwind$_ZN6System12TInstHashMap7DestroyEPv
 0002:00002728       System.$unwind$_ZN6System12TInstHashMap15RegisterWeakRefEPvS1_
 0002:00002758       System.$unwind$_ZN6System12TInstHashMap17UnregisterWeakRefEPvS1_
 0002:00002788       System.$unwind$_ZN6System12TInstHashMap21RegisterWeakMethodRefEPvS1_
 0002:000027B8       System.$unwind$_ZN6System12TInstHashMap23UnregisterWeakMethodRefEPvS1_
 0002:000027E8       System.$unwind$_ZN6System12TInstHashMap12IsRegisteredEPv
 0002:00002818       System.$unwind$_ZN6System18MarkWeakReferencedEPNS_7TObjectE
 0002:00002824       System.$unwind$_ZN6System15RegisterWeakRefEPvPNS_7TObjectE
 0002:00002830       System.$unwind$_ZN6System17UnregisterWeakRefEPvPNS_7TObjectE
 0002:00002838       System.$unwind$_ZN6System16_CleanupInstanceEPv
 0002:00002840       System.$unwind$_ZN6System14_IntfWeakClearERNS_15DelphiInterfaceINS_10IInterfaceEEE
 0002:0000284C       System.$unwind$_ZN6System13_IntfWeakCopyERNS_15DelphiInterfaceINS_10IInterfaceEEES2_
 0002:0000287C       System.$unwind$_ZN6System13UnicodeToUtf8EPcjPwj
 0002:00002888       System.$unwind$_ZN6System13Utf8ToUnicodeEPwjPcj
 0002:00002894       System.$unwind$_ZN6System23UTF8EncodeToShortStringENS_13UnicodeStringE
 0002:000028A0       System.$unwind$_ZN6System19UTF8ToUnicodeStringERKNS_11SmallStringILh255EEE
 0002:000028D0       System.$unwind$_ZN6System12UTF8ToStringERKNS_11SmallStringILh255EEE
 0002:000028D8       System.$unwind$_ZN6System13LoadResStringEPNS_13TResStringRecE
 0002:000028E8       System.$unwind$_ZN6System22LocaleCharsFromUnicodeEjjPwiPciS1_Pi
 0002:000028F0       System.$unwind$_ZN6System22UnicodeFromLocaleCharsEjjPciPwi
 0002:000028F8       System.$unwind$_ZN6System11GetCPUCountEv
 0002:00002900       System.$unwind$_ZN6System20SetUTF8CompareLocaleEv
 0002:00002908       System.$unwind$_ZN6System5TGUID12_op_EqualityERK5_GUIDS3_
 0002:0000290C       System.$unwind$_ZN6System5TGUID14_op_InequalityERK5_GUIDS3_
 0002:00002914       System.$unwind$_ZN6System5TGUID6CreateEPKvb
 0002:0000291C       System.$unwind$_ZN6System5TGUID6CreateEPKhijb
 0002:00002924       System.$unwind$_ZN6System5TGUID5EmptyEv
 0002:0000292C       System.$unwind$_ZN6System12FinalizationEv
 0002:00002958       System.$unwind$_ZN6System14initializationEv
 0002:00002984       SysInit.TlsIndex
 0002:00002988       SysInit.PtrToNil
 0002:00002990       SysInit.DelayLoadHelper
 0002:00002998       SysInit.$unwind$_ZN7Sysinit17_DelayLoadHelper2ERPvS0_
 0002:000029A0       SysInit.$unwind$_ZN7Sysinit14AllocTlsBufferEi
 0002:000029A8       SysInit.Module
 0002:000029E0       SysInit.$unwind$_ZN7Sysinit10GetTlsSizeEv
 0002:000029E4       SysInit.$unwind$_ZN7Sysinit13InitThreadTLSEv
 0002:000029EC       SysInit.$unwind$_ZN7Sysinit7_GetTlsEv
 0002:000029F4       SysInit.$unwind$_ZN7Sysinit16InitializeModuleEv
 0002:000029FC       SysInit.$unwind$_ZN7Sysinit14__dbkDummyProcEv
 0002:00002A00       SysInit.$unwind$_ZN7Sysinit14__dbkFCallArgsEPvS0_S0_S0_S0_S0_S0_S0_S0_S0_S0_S0_S0_S0_S0_S0_S0_S0_S0_S0_S0_S0_S0_S0_S0_S0_S0_S0_S0_S0_
 0002:00002A08       SysInit.$unwind$_ZN7Sysinit19__dbk_fcall_wrapperEv
 0002:00002A44       SysInit.$unwind$_ZN7Sysinit8_InitExeEPv
 0002:00002A4C       SysInit...$unwind$__delayLoadHelper2
 0002:00002A58       SysInit...$unwind$?FLoadedAtPreferredAddress@@YA_NPEAU_IMAGE_NT_HEADERS64@@PEAUHINSTANCE__@@@Z
 0002:00002A60       SysInit...$unwind$__FUnloadDelayLoadedDLL2
 0002:00002A6C       SysInit...$unwind$?__strlen@@YA_KPEBD@Z
 0002:00002A74       SysInit...$unwind$?OverlayIAT@@YAXPEAU_IMAGE_THUNK_DATA64@@PEBU1@@Z
 0002:00002A7C       SysInit...$unwind$?__memcpy@@YAPEAXPEAXPEBX_K@Z
 0002:00002A84       SysInit...$unwind$__HrLoadAllImportsForDll
 0002:00002A8C       SysInit...$unwind$ShutdownDelayHelp2
 0002:00002A94       SysInit...$unwind$??0ULI@@QEAA@PEBUImgDelayDescr@@@Z
 0002:00002A9C       SysInit...$unwind$??2ULI@@SAPEAX_K@Z
 0002:00002AA4       SysInit...$unwind$?CountOfImports@@YAIPEBU_IMAGE_THUNK_DATA64@@@Z
 0002:00002AAC       SysInit...$unwind$??_GULI@@QEAAPEAXI@Z
 0002:00002AB4       SysInit...$unwind$??1ULI@@QEAA@XZ
 0002:00002ABC       SysInit...$unwind$??3ULI@@SAXPEAX@Z
 0002:00002AC4       SysInit...$unwind$?Unlink@ULI@@QEAAXXZ
 0002:00002ACC       SysInit...$unwind$HRESULT_FROM_WIN32
 0002:00002AD4       SysInit.$unwind$_ZN7Sysinit12FinalizationEv
 0002:00002ADC       SysInit.$unwind$_ZN7Sysinit14initializationEv
 0002:00002AE0       System.Types.$unwind$_ZN6System5Types12FinalizationEv
 0002:00002AE4       System.Types.$unwind$_ZN6System5Types14initializationEv
 0002:00002AE8       System.UITypes.$unwind$_ZN6System7Uitypes12FinalizationEv
 0002:00002AEC       System.UITypes.$unwind$_ZN6System7Uitypes14initializationEv
 0002:00002AF0       Winapi.Windows.Win32MajorVersion
 0002:00002AF4       Winapi.Windows.Win32MinorVersion
 0002:00002AF8       Winapi.Windows.Win32Platform
 0002:00002AFC       Winapi.Windows.$unwind$_ZN6Winapi7Windows14GetProcAddressEyPw
 0002:00002B48       Winapi.Windows.$unwind$_ZN6Winapi7Windows15InitVersionInfoEv
 0002:00002B50       Winapi.Windows.$unwind$_ZN6Winapi7Windows12FinalizationEv
 0002:00002B58       Winapi.Windows.$unwind$_ZN6Winapi7Windows14initializationEv
 0002:00002B60       System.SysConst.$unwind$_ZN6System8Sysconst12FinalizationEv
 0002:00002B64       System.SysConst.$unwind$_ZN6System8Sysconst14initializationEv
 0002:00002B68       Winapi.ImageHlp.$unwind$_ZN6Winapi8Imagehlp12FinalizationEv
 0002:00002B6C       Winapi.ImageHlp.$unwind$_ZN6Winapi8Imagehlp14initializationEv
 0002:00002B70       Winapi.SHFolder.$unwind$_ZN6Winapi8Shfolder12FinalizationEv
 0002:00002B74       Winapi.SHFolder.$unwind$_ZN6Winapi8Shfolder14initializationEv
 0002:00002B78       Winapi.PsAPI.$unwind$_ZN6Winapi5Psapi12FinalizationEv
 0002:00002B80       Winapi.PsAPI.$unwind$_ZN6Winapi5Psapi14initializationEv
 0002:00002B84       System.RTLConsts.$unwind$_ZN6System9Rtlconsts12FinalizationEv
 0002:00002B88       System.RTLConsts.$unwind$_ZN6System9Rtlconsts14initializationEv
 0002:00002B8C       System.Character.$unwind$_ZZN6System9Character19CharTableInitializeEvE8bin_dataPv
 0002:00002B90       System.Character.$unwind$_ZN6System9Character19CharTableInitializeEv
 0002:00002B9C       System.Character.$unwind$_ZN6System9Character26InternalGetUnicodeCategoryEj
 0002:00002BA0       System.Character.$unwind$_ZN6System9Character11TCharHelper8IsLetterEv
 0002:00002BA8       System.Character.$unwind$_ZN6System9Character11TCharHelper8IsNumberEv
 0002:00002BB0       System.Character.$unwind$_ZN6System9Character12FinalizationEv
 0002:00002BB4       System.Character.$unwind$_ZN6System9Character14initializationEv
 0002:00002BC0       System.Internal.ExcUtils.ExceptTypes
 0002:00002C68       System.Internal.ExcUtils.ExceptMap
 0002:00002E08       System.Internal.ExcUtils.$unwind$_ZN6System8Internal8Excutils12FinalizationEv
 0002:00002E34       System.Internal.ExcUtils.$unwind$_ZN6System8Internal8Excutils14initializationEv
 0002:00002E3C       System.SysUtils.$unwind$_ZN6System8Sysutils10TLanguagesv04cctrEv
 0002:00002E40       System.SysUtils.EmptyStr
 0002:00002E48       System.SysUtils.EmptyWideStr
 0002:00002E50       System.SysUtils.EmptyAnsiStr
 0002:00002E58       System.SysUtils.Win32Platform
 0002:00002E5C       System.SysUtils.Win32MajorVersion
 0002:00002E60       System.SysUtils.Win32MinorVersion
 0002:00002E64       System.SysUtils.Win32BuildNumber
 0002:00002E68       System.SysUtils.Win32CSDVersion
 0002:00002E70       System.SysUtils.MonthDays
 0002:00002EA0       System.SysUtils.LeadBytes
 0002:00002EC0       System.SysUtils.HexDisplayPrefix
 0002:00002EC8       System.SysUtils.GetDiskFreeSpaceEx
 0002:00002ED0       System.SysUtils.$unwind$_ZN6System8Sysutils10TOSVersionv04cdtrEv
 0002:00002ED8       System.SysUtils.$unwind$_ZN6System8Sysutils12ConvertErrorEPNS_13TResStringRecE
 0002:00002EE0       System.SysUtils.$unwind$_ZN6System8Sysutils15ConvertErrorFmtEPNS_13TResStringRecEPKNS_7TVarRecEi
 0002:00002EE8       System.SysUtils.TwoDigitLookup
 0002:00003078       System.SysUtils.$unwind$_ZN6System8Sysutils10CompareStrENS_13UnicodeStringES1_
 0002:00003080       System.SysUtils.$unwind$_ZN6System8Sysutils11CompareTextENS_13UnicodeStringES1_
 0002:00003088       System.SysUtils.$unwind$_ZN6System8Sysutils13AnsiUpperCaseENS_13UnicodeStringE
 0002:00003094       System.SysUtils.$unwind$_ZN6System8Sysutils13AnsiLowerCaseENS_13UnicodeStringE
 0002:000030A0       System.SysUtils.TwoHexLookup
 0002:000034A0       System.SysUtils.OneHexLookup
 0002:000034C0       System.SysUtils.$unwind$_ZN6System8Sysutils11_IntToStr32Ejb
 0002:000034D0       System.SysUtils.$unwind$_ZN6System8Sysutils11_IntToStr64Eyb
 0002:000034E0       System.SysUtils.$unwind$_ZN6System8Sysutils8IntToStrEi
 0002:000034E8       System.SysUtils.$unwind$_ZN6System8Sysutils8IntToStrEx
 0002:000034F0       System.SysUtils.$unwind$_ZN6System8Sysutils9UIntToStrEj
 0002:000034F8       System.SysUtils.$unwind$_ZN6System8Sysutils9UIntToStrEy
 0002:00003500       System.SysUtils.$unwind$_ZN6System8Sysutils18_UInt32ToHexStringEjiiw
 0002:00003530       System.SysUtils.$unwind$_ZN6System8Sysutils18_UInt64ToHexStringEyiiw
 0002:00003560       System.SysUtils.$unwind$_ZN6System8Sysutils12_UIntToHex32Eji
 0002:00003568       System.SysUtils.$unwind$_ZN6System8Sysutils12_UIntToHex64Eyi
 0002:00003570       System.SysUtils.$unwind$_ZN6System8Sysutils8IntToHexEii
 0002:00003578       System.SysUtils.$unwind$_ZN6System8Sysutils8IntToHexExi
 0002:00003580       System.SysUtils.$unwind$_ZN6System8Sysutils8StrToIntENS_13UnicodeStringE
 0002:00003590       System.SysUtils.$unwind$_ZN6System8Sysutils11StrToIntDefENS_13UnicodeStringEi
 0002:0000359C       System.SysUtils.$unwind$_ZN6System8Sysutils11TryStrToIntENS_13UnicodeStringERi
 0002:000035A8       System.SysUtils.FormatErrorStrs
 0002:000035B8       System.SysUtils.FCon1E18
 0002:000035C0       System.SysUtils.DCon10
 0002:000035C4       System.SysUtils.CMinusSign
 0002:000035C6       System.SysUtils.CPlusSign
 0002:000035C8       System.SysUtils.CZero
 0002:000035D0       System.SysUtils.CSpecial
 0002:000035E0       System.SysUtils.CCurrencyFormats
 0002:00003600       System.SysUtils.CNegCurrencyFormats
 0002:00003680       System.SysUtils.FMSecsPerDay
 0002:00003684       System.SysUtils.IMSecsPerDay
 0002:00003688       System.SysUtils.$unwind$_ZN6System8Sysutils17EnumStringModulesEyPv
 0002:00003698       System.SysUtils.$unwind$_ZN6System8Sysutils18FindStringResourceEy
 0002:000036C8       System.SysUtils.$unwind$_ZN6System8Sysutils7LoadStrEy
 0002:000036D0       System.SysUtils.$unwind$_ZN6System8Sysutils15ExtractFileNameENS_13UnicodeStringE
 0002:000036D8       System.SysUtils.$unwind$_ZN6System8Sysutils26BackfillGetDiskFreeSpaceExEPwRxS2_Px
 0002:000036E8       System.SysUtils.$unwind$_ZN6System8Sysutils6StrEndEPKw
 0002:000036EC       System.SysUtils.$unwind$_ZN6System8Sysutils7StrMoveEPwPKwj
 0002:000036F4       System.SysUtils.$unwind$_ZN6System8Sysutils8StrLCopyEPwPKwj
 0002:00003704       System.SysUtils.$unwind$_ZN6System8Sysutils8StrRScanEPKww
 0002:0000370C       System.SysUtils.$unwind$_ZN6System8Sysutils6StrPosEPKwS2_
 0002:00003710       System.SysUtils.$unwind$_ZN6System8Sysutils11FormatErrorEiPwj
 0002:00003720       System.SysUtils.$unwind$_ZN6System8Sysutils9FormatBufEPwjPKvjPKNS_7TVarRecEiRKNS0_15TFormatSettingsE
 0002:00003728       System.SysUtils.$unwind$_ZN6System8Sysutils7StrLFmtEPwjS1_PKNS_7TVarRecEi
 0002:00003730       System.SysUtils.$unwind$_ZN6System8Sysutils7StrLFmtEPwjS1_PKNS_7TVarRecEiRKNS0_15TFormatSettingsE
 0002:00003740       System.SysUtils.$unwind$_ZN6System8Sysutils6FormatENS_13UnicodeStringEPKNS_7TVarRecEi
 0002:00003748       System.SysUtils.$unwind$_ZN6System8Sysutils6FormatENS_13UnicodeStringEPKNS_7TVarRecEiRKNS0_15TFormatSettingsE
 0002:00003750       System.SysUtils.$unwind$_ZN6System8Sysutils6FmtStrERNS_13UnicodeStringES1_PKNS_7TVarRecEiRKNS0_15TFormatSettingsE
 0002:00003764       System.SysUtils.$unwind$_ZZN6System8Sysutils13WideFormatBufEPvjPKvjPKNS_7TVarRecEiRKNS0_15TFormatSettingsEE10ApplyWidthS1_ii
 0002:0000376C       System.SysUtils.$unwind$_ZZN6System8Sysutils13WideFormatBufEPvjPKvjPKNS_7TVarRecEiRKNS0_15TFormatSettingsEE6AddBufS1_PKwii
 0002:00003780       System.SysUtils.$unwind$_ZZN6System8Sysutils13WideFormatBufEPvjPKvjPKNS_7TVarRecEiRKNS0_15TFormatSettingsEE22VariantToUnicodeStringS1_RK8TVarData
 0002:00003790       System.SysUtils.$unwind$_ZN6System8Sysutils13WideFormatBufEPvjPKvjPKNS_7TVarRecEiRKNS0_15TFormatSettingsE
 0002:000037C8       System.SysUtils.$unwind$_ZZN6System8Sysutils19InternalFloatToTextEPhbPKvNS0_11TFloatValueENS0_12TFloatFormatEiiRKNS0_15TFormatSettingsEE10AppendCharPvw
 0002:000037D0       System.SysUtils.$unwind$_ZZN6System8Sysutils19InternalFloatToTextEPhbPKvNS0_11TFloatValueENS0_12TFloatFormatEiiRKNS0_15TFormatSettingsEE12AppendStringPvNS_13UnicodeStringE
 0002:000037E0       System.SysUtils.$unwind$_ZZN6System8Sysutils19InternalFloatToTextEPhbPKvNS0_11TFloatValueENS0_12TFloatFormatEiiRKNS0_15TFormatSettingsEE8GetDigitPv
 0002:000037E8       System.SysUtils.$unwind$_ZZN6System8Sysutils19InternalFloatToTextEPhbPKvNS0_11TFloatValueENS0_12TFloatFormatEiiRKNS0_15TFormatSettingsEE12FormatNumberPv
 0002:000037F8       System.SysUtils.$unwind$_ZZN6System8Sysutils19InternalFloatToTextEPhbPKvNS0_11TFloatValueENS0_12TFloatFormatEiiRKNS0_15TFormatSettingsEE14FormatExponentPv
 0002:0000382C       System.SysUtils.$unwind$_ZN6System8Sysutils19InternalFloatToTextEPhbPKvNS0_11TFloatValueENS0_12TFloatFormatEiiRKNS0_15TFormatSettingsE
 0002:00003860       System.SysUtils.$unwind$_ZN6System8Sysutils11FloatToTextEPwPKvNS0_11TFloatValueENS0_12TFloatFormatEiiRKNS0_15TFormatSettingsE
 0002:00003868       System.SysUtils.$unwind$_ZZN6System8Sysutils14FloatToDecimalERNS0_9TFloatRecEPKvNS0_11TFloatValueEiiE11GetBcdBytesPve
 0002:00003878       System.SysUtils.$unwind$_ZZN6System8Sysutils14FloatToDecimalERNS0_9TFloatRecEPKvNS0_11TFloatValueEiiE12ExtToDecimalPve
 0002:00003884       System.SysUtils.$unwind$_ZZN6System8Sysutils14FloatToDecimalERNS0_9TFloatRecEPKvNS0_11TFloatValueEiiE13CurrToDecimalPvNS_8CurrencyE
 0002:000038BC       System.SysUtils.$unwind$_ZN6System8Sysutils14FloatToDecimalERNS0_9TFloatRecEPKvNS0_11TFloatValueEii
 0002:000038C8       System.SysUtils.$unwind$_ZN6System8Sysutils17ValidateTimeStampENS0_10TTimeStampE
 0002:000038D4       System.SysUtils.$unwind$_ZN6System8Sysutils19TimeStampToDateTimeENS0_10TTimeStampE
 0002:000038DC       System.SysUtils.$unwind$_ZN6System8Sysutils13TryEncodeTimeEttttRNS_9TDateTimeE
 0002:000038E8       System.SysUtils.$unwind$_ZN6System8Sysutils10EncodeTimeEtttt
 0002:000038F4       System.SysUtils.$unwind$_ZN6System8Sysutils10IsLeapYearEt
 0002:000038F8       System.SysUtils.$unwind$_ZN6System8Sysutils13TryEncodeDateEtttRNS_9TDateTimeE
 0002:00003908       System.SysUtils.$unwind$_ZN6System8Sysutils10EncodeDateEttt
 0002:00003914       System.SysUtils.$unwind$_ZN6System8Sysutils3NowEv
 0002:00003920       System.SysUtils.DefShortMonthNames
 0002:00003980       System.SysUtils.DefLongMonthNames
 0002:000039E0       System.SysUtils.DefShortDayNames
 0002:00003A18       System.SysUtils.DefLongDayNames
 0002:00003A50       System.SysUtils.$unwind$_ZN6System8Sysutils12GetLocaleStrEiiNS_13UnicodeStringE
 0002:00003A60       System.SysUtils.$unwind$_ZN6System8Sysutils13GetLocaleCharEiiw
 0002:00003A6C       System.SysUtils.$unwind$_ZN6System8Sysutils15TFormatSettings6CreateEj
 0002:00003A9C       System.SysUtils.$unwind$_ZN6System8Sysutils15TFormatSettings6CreateENS_13UnicodeStringE
 0002:00003AD0       System.SysUtils.$unwind$_ZN6System8Sysutils15TFormatSettings6CreateEv
 0002:00003AD8       System.SysUtils.$unwind$_ZN6System8Sysutils15TFormatSettings9InvariantEv
 0002:00003AE8       System.SysUtils.$unwind$_ZN6System8Sysutils15TFormatSettings16AdjustLocaleNameENS_13UnicodeStringES2_
 0002:00003AF0       System.SysUtils.$unwind$_ZN6System8Sysutils15TFormatSettings11GetDayNamesEjRS1_
 0002:00003B28       System.SysUtils.$unwind$_ZN6System8Sysutils15TFormatSettings13GetMonthNamesEjRS1_
 0002:00003B5C       System.SysUtils.$unwind$_ZN6System8Sysutils14FSEnumEraNamesEPw
 0002:00003B88       System.SysUtils.$unwind$_ZN6System8Sysutils20FSEnumEraYearOffsetsEPw
 0002:00003BB8       System.SysUtils.$unwind$_ZN6System8Sysutils15TFormatSettings17GetEraInformationEjRS1_
 0002:00003C08       System.SysUtils.$unwind$_ZN6System8Sysutils15TFormatSettings9GetStringEjiiPKPvi
 0002:00003C14       System.SysUtils.$unwind$_ZZN6System8Sysutils15TFormatSettings19TranslateDateFormatEjiNS_13UnicodeStringEwE16FixDateSeparatorPvRS2_
 0002:00003C24       System.SysUtils.$unwind$_ZN6System8Sysutils15TFormatSettings19TranslateDateFormatEjiNS_13UnicodeStringEw
 0002:00003C58       System.SysUtils.$unwind$_ZN6System8Sysutils15TFormatSettings16GetEraYearOffsetENS_13UnicodeStringE
 0002:00003C70       System.SysUtils.ErrorMap
 0002:00003CE0       System.SysUtils.$unwind$_ZZN6System8Sysutils21ExceptionErrorMessageEPNS_7TObjectEPvPwiE11ConvertAddrS3_S3_
 0002:00003CE4       System.SysUtils.$unwind$_ZN6System8Sysutils21ExceptionErrorMessageEPNS_7TObjectEPvPwi
 0002:00003D1C       System.SysUtils.$unwind$_ZN6System8Sysutils13ShowExceptionEPNS_7TObjectEPv
 0002:00003D50       System.SysUtils.$unwind$_ZN6System8Sysutils9ExceptionC3ENS_13UnicodeStringE
 0002:00003D8C       System.SysUtils.$unwind$_ZN6System8Sysutils9ExceptionC3ENS_13UnicodeStringEPKNS_7TVarRecEi
 0002:00003DE4       System.SysUtils.$unwind$_ZN6System8Sysutils9ExceptionC3Ey
 0002:00003E3C       System.SysUtils.$unwind$_ZN6System8Sysutils9ExceptionC3EPNS_13TResStringRecE
 0002:00003E78       System.SysUtils.$unwind$_ZN6System8Sysutils9ExceptionC3EyPKNS_7TVarRecEi
 0002:00003ED0       System.SysUtils.$unwind$_ZN6System8Sysutils9ExceptionC3EPNS_13TResStringRecEPKNS_7TVarRecEi
 0002:00003F28       System.SysUtils.$unwind$_ZN6System8Sysutils9ExceptionC3ENS_13UnicodeStringEi
 0002:00003F64       System.SysUtils.$unwind$_ZN6System8Sysutils9ExceptionC3ENS_13UnicodeStringEPKNS_7TVarRecEii
 0002:00003FBC       System.SysUtils.$unwind$_ZN6System8Sysutils9ExceptionC3Eyi
 0002:00004014       System.SysUtils.$unwind$_ZN6System8Sysutils9ExceptionC3EPNS_13TResStringRecEi
 0002:00004050       System.SysUtils.$unwind$_ZN6System8Sysutils9ExceptionC3EyPKNS_7TVarRecEii
 0002:000040A8       System.SysUtils.$unwind$_ZN6System8Sysutils9ExceptionC3EPNS_13TResStringRecEPKNS_7TVarRecEii
 0002:00004100       System.SysUtils.$unwind$_ZN6System8Sysutils9ExceptionD0Ev
 0002:0000410C       System.SysUtils.$unwind$_ZN6System8Sysutils9Exception16GetBaseExceptionEv
 0002:00004110       System.SysUtils.$unwind$_ZN6System8Sysutils9Exception13GetStackTraceEv
 0002:00004118       System.SysUtils.$unwind$_ZN6System8Sysutils9Exception19RaiseOuterExceptionEPS1_
 0002:00004120       System.SysUtils.$unwind$_ZN6System8Sysutils9Exception19ThrowOuterExceptionEPS1_
 0002:00004128       System.SysUtils.$unwind$_ZN6System8Sysutils9Exception16RaisingExceptionEPNS_16TExceptionRecordE
 0002:00004134       System.SysUtils.$unwind$_ZN6System8Sysutils9Exception17SetInnerExceptionEv
 0002:0000413C       System.SysUtils.$unwind$_ZN6System8Sysutils9Exception12SetStackInfoEPv
 0002:00004140       System.SysUtils.$unwind$_ZN6System8Sysutils9Exception8ToStringEv
 0002:0000414C       System.SysUtils.$unwind$_ZN6System8Sysutils14EHeapException12FreeInstanceEv
 0002:00004154       System.SysUtils.$unwind$_ZN6System8Sysutils14EHeapException16RaisingExceptionEPNS_16TExceptionRecordE
 0002:0000415C       System.SysUtils.$unwind$_ZN6System8Sysutils16CreateInOutErrorEv
 0002:00004168       System.SysUtils.$unwind$_ZN6System8Sysutils12ErrorHandlerEhPv
 0002:00004170       System.SysUtils.$unwind$_ZN6System8Sysutils18AssertErrorHandlerENS_13UnicodeStringES1_iPv
 0002:000041A0       System.SysUtils.$unwind$_ZN6System8Sysutils20AbstractErrorHandlerEv
 0002:000041A8       System.SysUtils.$unwind$_ZN6System8Sysutils12MapExceptionEPNS_16TExceptionRecordE
 0002:000041AC       System.SysUtils.$unwind$_ZN6System8Sysutils17GetExceptionClassEPNS_16TExceptionRecordE
 0002:000041B4       System.SysUtils.$unwind$_ZZN6System8Sysutils18GetExceptionObjectEPNS_16TExceptionRecordEE14CreateAVObjectPv
 0002:000041E8       System.SysUtils.$unwind$_ZN6System8Sysutils18GetExceptionObjectEPNS_16TExceptionRecordE
 0002:0000421C       System.SysUtils.$unwind$_ZN6System8Sysutils17RaiseExceptObjectEPNS_16TExceptionRecordE
 0002:00004228       System.SysUtils.$unwind$_ZN6System8Sysutils13ExceptHandlerEPNS_7TObjectEPv
 0002:00004230       System.SysUtils.$unwind$_ZN6System8Sysutils14InitExceptionsEv
 0002:00004238       System.SysUtils.$unwind$_ZN6System8Sysutils14DoneExceptionsEv
 0002:00004240       System.SysUtils.$unwind$_ZN6System8Sysutils9Exceptionv04cctrEv
 0002:00004248       System.SysUtils.$unwind$_ZN6System8Sysutils9Exceptionv04cdtrEv
 0002:00004250       System.SysUtils.$unwind$_ZN6System8Sysutils18WaitForSyncWaitObjEPvj
 0002:00004258       System.SysUtils.MonitorSupport
 0002:00004280       System.SysUtils.$unwind$_ZN6System8Sysutils4PushERPNS0_16TEventItemHolderES2_
 0002:00004284       System.SysUtils.$unwind$_ZN6System8Sysutils3PopERPNS0_16TEventItemHolderE
 0002:00004288       System.SysUtils.$unwind$_ZN6System8Sysutils10NewSyncObjEv
 0002:00004294       System.SysUtils.$unwind$_ZN6System8Sysutils11FreeSyncObjEPv
 0002:0000429C       System.SysUtils.$unwind$_ZN6System8Sysutils10NewWaitObjEv
 0002:000042A4       System.SysUtils.$unwind$_ZN6System8Sysutils11FreeWaitObjEPv
 0002:000042AC       System.SysUtils.$unwind$_ZN6System8Sysutils15WaitOrSignalObjEPvS1_j
 0002:000042B4       System.SysUtils.$unwind$_ZN6System8Sysutils18InitMonitorSupportEv
 0002:000042B8       System.SysUtils.$unwind$_ZZN6System8Sysutils18DoneMonitorSupportEvE10CleanStackPvPNS0_16TEventItemHolderE
 0002:000042C4       System.SysUtils.$unwind$_ZZN6System8Sysutils18DoneMonitorSupportEvE14CleanEventListPvPNS0_14TSyncEventItemEi
 0002:000042D4       System.SysUtils.$unwind$_ZN6System8Sysutils18DoneMonitorSupportEv
 0002:000042E0       System.SysUtils.$unwind$_ZN6System8Sysutils21GetNetWkstaMajorMinorERjS1_
 0002:000042F0       System.SysUtils.$unwind$_ZN6System8Sysutils14InitPlatformIdEv
 0002:000042F8       System.SysUtils.$unwind$_ZN6System8Sysutils17GetProductVersionENS_13UnicodeStringERjS2_S2_
 0002:00004344       System.SysUtils.$unwind$_ZN6System8Sysutils11StrByteTypeEPwj
 0002:00004348       System.SysUtils.$unwind$_ZN6System8Sysutils13StrCharLengthEPKw
 0002:0000434C       System.SysUtils.$unwind$_ZN6System8Sysutils10CharLengthENS_13UnicodeStringEi
 0002:00004354       System.SysUtils.$unwind$_ZN6System8Sysutils10AnsiStrPosEPwS1_
 0002:0000435C       System.SysUtils.$unwind$_ZN6System8Sysutils12AnsiStrRScanEPww
 0002:00004364       System.SysUtils.$unwind$_ZZN6System8Sysutils13InitSysLocaleEvE13InitLeadBytesPv
 0002:00004370       System.SysUtils.$unwind$_ZN6System8Sysutils13InitSysLocaleEv
 0002:00004380       System.SysUtils.$unwind$_ZN6System8Sysutils17GetFormatSettingsEv
 0002:000043B4       System.SysUtils.$unwind$_ZN6System8Sysutils19ClearFormatSettingsEv
 0002:000043B8       System.SysUtils.$unwind$_ZN6System8Sysutils13StringReplaceENS_13UnicodeStringES1_S1_NS_3SetINS0_19System_Sysutils__85ELS3_0ELS3_1EEE
 0002:000043F4       System.SysUtils.$unwind$_ZN6System8Sysutils12HashNameMBCSEPc
 0002:00004408       System.SysUtils.$unwind$_ZN6System8Sysutils8HashNameEPc
 0002:00004410       System.SysUtils.$unwind$_ZN6System8Sysutils15ClearHashTablesEv
 0002:00004418       System.SysUtils.$unwind$_ZN6System8Sysutils14ModuleUnloadedEy
 0002:00004430       System.SysUtils.TerminateProcList
 0002:00004438       System.SysUtils.$unwind$_ZN6System8Sysutils18FreeTerminateProcsEv
 0002:00004440       System.SysUtils.$unwind$_ZN6System8Sysutils17InitDriveSpacePtrEv
 0002:00004448       System.SysUtils.$unwind$_ZN6System8Sysutils10FreeAndNilEPv
 0002:00004450       System.SysUtils.$unwind$_ZN6System8Sysutils19EnumLocalesCallbackEPw
 0002:00004458       System.SysUtils.$unwind$_ZN6System8Sysutils14GetLocaleDataWEjj
 0002:00004468       System.SysUtils.$unwind$_ZN6System8Sysutils10TLanguages15LocalesCallbackEPw
 0002:0000449C       System.SysUtils.$unwind$_ZN6System8Sysutils10TLanguagesC3Ev
 0002:000044D8       System.SysUtils.$unwind$_ZN6System8Sysutils10TLanguagesD0Ev
 0002:000044E4       System.SysUtils.$unwind$_ZN6System8Sysutils10TLanguages8GetCountEv
 0002:000044F0       System.SysUtils.$unwind$_ZN6System8Sysutils10TLanguages6GetExtEi
 0002:000044F8       System.SysUtils.$unwind$_ZN6System8Sysutils10TLanguages5GetIDEi
 0002:00004528       System.SysUtils.$unwind$_ZN6System8Sysutils10TLanguages11GetLocaleIDEi
 0002:0000452C       System.SysUtils.$unwind$_ZN6System8Sysutils10TLanguages13GetLocaleNameEi
 0002:00004534       System.SysUtils.$unwind$_ZN6System8Sysutils10TLanguages7GetNameEi
 0002:0000453C       System.SysUtils.$unwind$_ZN6System8Sysutils10TLanguages19GetNameFromLocaleIDEj
 0002:00004548       System.SysUtils.$unwind$_ZN6System8Sysutils10TLanguages25GetLocaleIDFromLocaleNameENS_13UnicodeStringE
 0002:00004578       System.SysUtils.$unwind$_ZN6System8Sysutils10TLanguages15GetNameFromLCIDENS_13UnicodeStringE
 0002:00004584       System.SysUtils.$unwind$_ZN6System8Sysutils10TLanguages19GetLocaleIDFromNameENS_13UnicodeStringE
 0002:000045B4       System.SysUtils.$unwind$_ZN6System8Sysutils10TLanguages7IndexOfEj
 0002:000045C0       System.SysUtils.$unwind$_ZN6System8Sysutils10TLanguages7IndexOfENS_13UnicodeStringE
 0002:000045D4       System.SysUtils.MapFlags
 0002:000045FC       System.SysUtils.$unwind$_ZN6System8Sysutils10TLanguagesv04cdtrEv
 0002:00004604       System.SysUtils.$unwind$_ZN6System8Sysutils9LanguagesEv
 0002:0000460C       System.SysUtils.$unwind$_ZN6System8Sysutils13TStringHelper9GetLengthEv
 0002:00004610       System.SysUtils.$unwind$_ZN6System8Sysutils13TStringHelper7CompareENS_13UnicodeStringEiS2_iib
 0002:00004618       System.SysUtils.$unwind$_ZN6System8Sysutils13TStringHelper15InternalCompareENS_13UnicodeStringEiS2_iiibj
 0002:00004620       System.SysUtils.$unwind$_ZN6System8Sysutils13TStringHelper25InternalMapOptionsToFlagsENS_3SetINS0_14TCompareOptionELS3_0ELS3_9EEE
 0002:0000462C       System.SysUtils.$unwind$_ZN6System8Sysutils13TStringHelper15InternalCompareENS_13UnicodeStringEiS2_iiiNS_3SetINS0_14TCompareOptionELS4_0ELS4_9EEEj
 0002:00004638       System.SysUtils.$unwind$_ZN6System8Sysutils13TStringHelper7CompareENS_13UnicodeStringEiS2_iibj
 0002:00004640       System.SysUtils.$unwind$_ZN6System8Sysutils13TStringHelper6CreateEPKwi
 0002:0000464C       System.SysUtils.$unwind$_ZN6System8Sysutils13TStringHelper13LastDelimiterENS_13UnicodeStringE
 0002:00004650       System.SysUtils.$unwind$_ZN6System8Sysutils13TStringHelper7ReplaceEww
 0002:00004680       System.SysUtils.$unwind$_ZN6System8Sysutils13TStringHelper9SubstringEi
 0002:00004688       System.SysUtils.$unwind$_ZN6System8Sysutils13TStringHelper9SubstringEii
 0002:00004690       System.SysUtils.$unwind$_ZN6System8Sysutils13TStringHelper11ToCharArrayEv
 0002:00004698       System.SysUtils.$unwind$_ZN6System8Sysutils13TStringHelper11ToCharArrayEii
 0002:000046A8       System.SysUtils.DefaultFallbackLanguages
 0002:000046B0       System.SysUtils.CArchitectures
 0002:000046B8       System.SysUtils.CVersionStr
 0002:000046C8       System.SysUtils.CEditionStr
 0002:000046D8       System.SysUtils.$unwind$_ZZN6System8Sysutils10TOSVersionv04cctrEvE15IsWindowsServerPv
 0002:000046E4       System.SysUtils.$unwind$_ZN6System8Sysutils10TOSVersionv04cctrEv
 0002:000046F0       System.SysUtils.$unwind$_ZN6System8Sysutils10TOSVersion5CheckEii
 0002:000046F4       System.SysUtils.$unwind$_ZN6System8Sysutils12FinalizationEv
 0002:00004720       System.SysUtils.$unwind$_ZN6System8Sysutils14initializationEv
 0002:0000474C       FullDebugMode_DLL_TestApp.$unwind$_ZN25Fulldebugmode_dll_testapp24TestFrameBasedStackTraceEv
 0002:00004758       FullDebugMode_DLL_TestApp.$unwind$_ZN25Fulldebugmode_dll_testapp17TestRawStackTraceEv
 0002:00004764       FullDebugMode_DLL_TestApp.$unwind$_ZN25Fulldebugmode_dll_testapp7RunTestEv
 0002:00004770       FullDebugMode_DLL_TestApp.$unwind$_ZN25Fulldebugmode_dll_testapp12FinalizationEv
 0002:00004778       FullDebugMode_DLL_TestApp.$unwind$_ZN25Fulldebugmode_dll_testapp14initializationEv
 0003:FFFD0000       SysInit.__ImageBase
 0003:00000000       System.TMonitor.CacheLineSize
 0003:00000004       System.TMonitor.FDefaultSpinCount
 0003:00000008       System.DispCallByIDProc
 0003:00000010       System.ExceptProc
 0003:00000018       System.ErrorProc
 0003:00000020       System.ExceptClsProc
 0003:00000028       System.ExceptObjProc
 0003:00000030       System.RaiseExceptionProc
 0003:00000038       System.RTLUnwindProc
 0003:00000040       System.RaiseExceptObjProc
 0003:00000048       System.ExceptionAcquired
 0003:00000050       System.ExceptionClass
 0003:00000058       System.AssertErrorProc
 0003:00000060       System.ExitProcessProc
 0003:00000068       System.AbstractErrorProc
 0003:00000070       System.MainInstance
 0003:00000078       System.MainThreadID
 0003:0000007C       System.IsLibrary
 0003:00000080       System.CmdShow
 0003:00000088       System.CmdLine
 0003:00000090       System.ExitProc
 0003:00000098       System.IsConsole
 0003:00000099       System.IsMultiThread
 0003:0000009A       System.Test8086
 0003:0000009C       System.TestSSE
 0003:000000A0       System.CPUCount
 0003:000000A8       System.Input
 0003:000003A0       System.Output
 0003:00000698       System.ErrOutput
 0003:00000990       System.MonitorSupport
 0003:00000998       System.CPUIDTable
 0003:00000A18       System.DefaultSystemCodePage
 0003:00000A1C       System.DefaultUnicodeCodePage
 0003:00000A20       System.UTF8CompareLocale
 0003:00000A24       System.ReportMemoryLeaksOnShutdown
 0003:00000A25       System.NeverSleepOnMMThreadContention
 0003:00000A28       System..71
 0003:00000A2C       System.AllocSize2SmallBlockTypeIndX4
 0003:00000B78       System.MediumBlockPoolsCircularList
 0003:00000B98       System.MediumBlocksLocked
 0003:00000BA0       System.LastSequentiallyFedMediumBlock
 0003:00000BA8       System.MediumSequentialFeedBytesLeft
 0003:00000BAC       System.MediumBlockBinGroupBitmap
 0003:00000BB0       System.MediumBlockBinBitmaps
 0003:00000C30       System.MediumBlockBins
 0003:00004C30       System.LargeBlocksLocked
 0003:00004C38       System.LargeBlocksCircularList
 0003:00004C58       System.ExpectedMemoryLeaks
 0003:00004C60       System.ExpectedMemoryLeaksListLocked
 0003:00004C68       System.MappingObjectHandle
 0003:00004C70       System.InitContext
 0003:00004D98       System.DLLThreadContext
 0003:00004EC0       System.RegisteredTypeInfoTable
 0003:00004ED0       System.GetThreadPreferredUILanguages
 0003:00004ED8       System.SetThreadPreferredUILanguages
 0003:00004EE0       System.GetThreadUILanguage
 0003:00004EE8       System.UseThreadUILanguageAPI
 0003:00004EF0       System.CrSec
 0003:00004F18       System.CachedLangID
 0003:00004F1A       System.CachedLanguageNames
 0003:00004FC8       System.InstHashMap
 0003:00006260       SysInit.ModuleIsLib
 0003:00006261       SysInit.ModuleIsCpp
 0003:00006268       SysInit.HInstance
 0003:00006278       SysInit.dbkFCallWrapperAddr
 0003:00006280       SysInit.@_pfnDliNotifyHook2
 0003:00006288       SysInit.@_pfnDliFailureHook2
 0003:00006290       SysInit..1
 0003:00006298       SysInit.tlsBuffer
 0003:000062A0       SysInit...__puiHead
 0003:000062A8       System.Types..4
 0003:000062AC       System.UITypes..2
 0003:000062B0       Winapi.Windows..2
 0003:000062B8       Winapi.Windows.HtmlHelpModule
 0003:000062C0       System.SysConst..1
 0003:000062C4       Winapi.ImageHlp..1
 0003:000062C8       Winapi.SHFolder..1
 0003:000062CC       Winapi.PsAPI..1
 0003:000062D0       Winapi.PsAPI.hPSAPI
 0003:000062D8       System.RTLConsts..1
 0003:000062DC       System.Character..1
 0003:000062E0       System.Character.DataTable
 0003:000062E8       System.Character.CatIndexPrimary
 0003:000062F0       System.Character.CatIndexSecondary
 0003:000062F8       System.Character.CategoryTable
 0003:00006300       System.Character.NumIndexPrimary
 0003:00006308       System.Character.NumIndexSecondary
 0003:00006310       System.Character.NumIndexTertiary
 0003:00006318       System.Character.NumericValueTable
 0003:00006320       System.Internal.ExcUtils..2
 0003:00006324       System.SysUtils.TLanguages.$ClassInitFlag
 0003:00006328       System.SysUtils.Exception.$ClassInitFlag
 0003:00006330       System.SysUtils.Exception.GetExceptionStackInfoProc
 0003:00006338       System.SysUtils.Exception.GetStackInfoStringProc
 0003:00006340       System.SysUtils.Exception.CleanUpStackInfoProc
 0003:00006348       System.SysUtils.SysLocale
 0003:00006358       System.SysUtils.FormatSettings
 0003:000064E0       System.SysUtils.TrueBoolStrs
 0003:000064E8       System.SysUtils.FalseBoolStrs
 0003:000064F0       System.SysUtils.TOSVersion.FArchitecture
 0003:000064F4       System.SysUtils.TOSVersion.FBuild
 0003:000064F8       System.SysUtils.TOSVersion.FMajor
 0003:000064FC       System.SysUtils.TOSVersion.FMinor
 0003:00006500       System.SysUtils.TOSVersion.FName
 0003:00006508       System.SysUtils.TOSVersion.FPlatform
 0003:0000650C       System.SysUtils.TOSVersion.FServicePackMajor
 0003:00006510       System.SysUtils.TOSVersion.FServicePackMinor
 0003:00006514       System.SysUtils.TOSVersion.$ClassInitFlag
 0003:00006518       System.SysUtils..17
 0003:00006520       System.SysUtils.NTQueryObject
 0003:00006528       System.SysUtils.GEraData
 0003:00006538       System.SysUtils.InternalFormatSettingsLock
 0003:00006540       System.SysUtils.OutOfMemory
 0003:00006548       System.SysUtils.InvalidPointer
 0003:00006550       System.SysUtils.EventCache
 0003:00006558       System.SysUtils.SyncEventCache
 0003:00006758       System.SysUtils.EventItemHolders
 0003:00006760       System.SysUtils.ValidatedUnitHashBuckets
 0003:00008748       System.SysUtils.UnitHashBuckets
 0003:0000A730       System.SysUtils.FLanguages
 0003:0000A738       System.SysUtils.LanguageArray
 0003:0000A740       FullDebugMode_DLL_TestApp.LReturnAddresses
 0003:0000A7E0       FullDebugMode_DLL_TestApp.LTextBuffer
 0003:0001A7E0       FullDebugMode_DLL_TestApp.E
 0004:00000000       System.ExceptionObjects
 0004:00000200       System.ExceptionObjectCount
 0004:00000208       System.RaiseListPtr
 0004:00000210       System.InOutRes
 0004:00000218       System.PrevElementType
 0004:00000220       System.PrevElementTypeResult
 0004:00000228       System.SysUtils.FTempLanguages
 0004:00000230       SysInit.TlsLast
 0005:00000000       System.$pdata$_ZN6System10GetCmdShowEv
 0005:0000000C       System.$pdata$_ZN6System5Move8EPKvPvx
 0005:00000018       System.$pdata$_ZN6System6Move24EPKvPvx
 0005:00000024       System.$pdata$_ZN6System6Move40EPKvPvx
 0005:00000030       System.$pdata$_ZN6System6Move56EPKvPvx
 0005:0000003C       System.$pdata$_ZN6System9MoveX16LPEPKvPvx
 0005:00000048       System.$pdata$_ZN6System16LockMediumBlocksEv
 0005:00000054       System.$pdata$_ZN6System21RemoveMediumFreeBlockEPNS_16TMediumFreeBlockE
 0005:00000060       System.$pdata$_ZN6System24InsertMediumBlockIntoBinEPNS_16TMediumFreeBlockEj
 0005:0000006C       System.$pdata$_ZN6System32BinMediumSequentialFeedRemainderEv
 0005:00000078       System.$pdata$_ZN6System32AllocNewSequentialFeedMediumPoolEj
 0005:00000084       System.$pdata$_ZN6System15LockLargeBlocksEv
 0005:00000090       System.$pdata$_ZN6System18AllocateLargeBlockEy
 0005:0000009C       System.$pdata$_ZN6System14FreeLargeBlockEPv
 0005:000000A8       System.$pdata$_ZN6System20ReallocateLargeBlockEPvy
 0005:000000B4       System.$pdata$_ZN6System9SysGetMemEx
 0005:000000C0       System.$pdata$_ZN6System10SysFreeMemEPv
 0005:000000CC       System.$pdata$_ZN6System13SysReallocMemEPvx
 0005:000000D8       System.$pdata$_ZN6System11SysAllocMemEx
 0005:000000E4       System.$pdata$_ZN6System11ShowMessageEPcS0_
 0005:000000F0       System.$pdata$_ZN6System15NextMediumBlockEPv
 0005:000000FC       System.$pdata$_ZN6System25GetFirstMediumBlockInPoolEPNS_22TMediumBlockPoolHeaderE
 0005:00000108       System.$pdata$_ZN6System31GetFirstAndLastSmallBlockInPoolEPNS_21TSmallBlockPoolHeaderERPvS3_
 0005:00000114       System.$pdata$_ZN6System18NativeUIntToStrBufEyPc
 0005:00000120       System.$pdata$_ZN6System20AppendStringToBufferEPKcS1_j
 0005:0000012C       System.$pdata$_ZN6System23AppendClassNameToBufferEPNS_10TMetaClassEPc
 0005:00000138       System.$pdata$_ZZN6System14GetObjectClassEPvE17IsValidVMTAddressS0_S0_
 0005:00000144       System.$pdata$_ZZN6System14GetObjectClassEPvE20InternalIsValidClassS0_S0_i
 0005:00000150       System.$pdata$_ZN6System14GetObjectClassEPv
 0005:0000015C       System.$pdata$_ZN6System27LockExpectedMemoryLeaksListEv
 0005:00000168       System.$pdata$_ZN6System29SysRegisterExpectedMemoryLeakEPv
 0005:00000174       System.$pdata$_ZN6System31SysUnregisterExpectedMemoryLeakEPv
 0005:00000180       System.$pdata$_ZZN6System18ScanForMemoryLeaksEvE27CheckSmallBlockPoolForLeaksPvPNS_21TSmallBlockPoolHeaderE
 0005:0000018C       System.$pdata$_ZN6System18ScanForMemoryLeaksEv
 0005:00000198       System.$pdata$_ZN6System25BuildBlockTypeLookupTableEv
 0005:000001A4       System.$pdata$_ZN6System23InitializeMemoryManagerEv
 0005:000001B0       System.$pdata$_ZN6System13FreeAllMemoryEv
 0005:000001BC       System.$pdata$_ZN6System21FinalizeMemoryManagerEv
 0005:000001C8       System.$pdata$_ZN6System8AllocMemEx
 0005:000001D4       System.$pdata$_ZN6System7_GetMemEx
 0005:000001E0       System.$pdata$_ZN6System8_FreeMemEPv
 0005:000001EC       System.$pdata$_ZN6System11_ReallocMemERPvx
 0005:000001F8       System.$pdata$_ZN6System18AllocateRaiseFrameEv
 0005:00000204       System.$pdata$_ZN6System17ReleaseRaiseFrameEPNS_11TRaiseFrameE
 0005:00000210       System.$pdata$_ZN6System12ExceptObjectEv
 0005:0000021C       System.$pdata$_ZN6System10ExceptAddrEv
 0005:00000228       System.$pdata$_ZN6System22AcquireExceptionObjectEv
 0005:00000234       System.$pdata$_ZN6System10RunErrorAtEiPv
 0005:00000240       System.$pdata$_ZN6System7ErrorAtEhPv
 0005:0000024C       System.$pdata$_ZN6System5ErrorENS_13TRuntimeErrorE
 0005:00000258       System.$pdata$_ZN6System8__IOTestEv
 0005:00000264       System.$pdata$_ZN6System11SetInOutResEi
 0005:00000270       System.$pdata$_ZN6System8IOResultEv
 0005:0000027C       System.$pdata$_ZN6System4MoveEPKvPvx
 0005:00000288       System.$pdata$_ZN6System14FSetExceptFlagEjj
 0005:00000294       System.$pdata$_ZN6System12FRaiseExceptEjb
 0005:000002A0       System.$pdata$_ZN6System14FGetExceptMaskEj
 0005:000002AC       System.$pdata$_ZN6System9Get8087CWEv
 0005:000002B8       System.$pdata$_ZN6System21SetMXCSRExceptionFlagEj
 0005:000002C4       System.$pdata$_ZN6System8GetMXCSREv
 0005:000002D0       System.$pdata$_ZN6System6_RoundEe
 0005:000002DC       System.$pdata$_ZN6System6_TruncEe
 0005:000002E8       System.$pdata$_ZN6System4_AbsEe
 0005:000002F4       System.$pdata$_ZN6System17__FlushMBCSBufferERNS_8TTextRecE
 0005:00000300       System.$pdata$_ZN6System8OpenTextERNS_8TTextRecEt
 0005:0000030C       System.$pdata$_ZN6System10_ResetTextERNS_8TTextRecE
 0005:00000318       System.$pdata$_ZN6System11_RewritTextERNS_8TTextRecE
 0005:00000324       System.$pdata$_ZN6System6TextInERNS_8TTextRecE
 0005:00000330       System.$pdata$_ZN6System11FileNOPProcEPv
 0005:0000033C       System.$pdata$_ZN6System7TextOutERNS_8TTextRecE
 0005:00000348       System.$pdata$_ZN6System13InternalCloseEy
 0005:00000354       System.$pdata$_ZN6System9TextCloseERNS_8TTextRecE
 0005:00000360       System.$pdata$_ZN6System15TextOpenCleanupERNS_8TTextRecE
 0005:0000036C       System.$pdata$_ZN6System8TextOpenERNS_8TTextRecE
 0005:00000378       System.$pdata$_ZN6System13InternalFlushERNS_8TTextRecEPFiS1_E
 0005:00000384       System.$pdata$_ZN6System5FlushERNS_8TextfileE
 0005:00000390       System.$pdata$_ZN6System6_FlushERNS_8TTextRecE
 0005:0000039C       System.$pdata$_ZN6System6_CloseERNS_8TTextRecE
 0005:000003A8       System.$pdata$_ZN6System9_FillCharEPvxc
 0005:000003B4       System.$pdata$_ZN6System15TryOpenForInputERNS_8TTextRecE
 0005:000003C0       System.$pdata$_ZN6System9_ReadByteERNS_8TTextRecERb
 0005:000003CC       System.$pdata$_ZN6System9_ReadWordERNS_8TTextRecERb
 0005:000003D8       System.$pdata$_ZN6System12_GetAnsiCharERNS_8TTextRecERbt
 0005:000003F0       System.$pdata$_ZN6System13_SkipAnsiCharERNS_8TTextRecE
 0005:000003FC       System.$pdata$_ZN6System12_GetWideCharERNS_8TTextRecERb
 0005:00000414       System.$pdata$_ZN6System13_SkipWideCharERNS_8TTextRecE
 0005:00000420       System.$pdata$_ZN6System7_ReadLnERNS_8TTextRecE
 0005:0000042C       System.$pdata$_ZN6System8_ValLongENS_13UnicodeStringERi
 0005:00000438       System.$pdata$_ZN6System16TryOpenForOutputERNS_8TTextRecE
 0005:00000444       System.$pdata$_ZN6System11_WriteBytesERNS_8TTextRecEPKvi
 0005:00000450       System.$pdata$_ZN6System12_WriteSpacesERNS_8TTextRecEi
 0005:00000468       System.$pdata$_ZZN6System11_Write0CharERNS_8TTextRecEcE26WriteUnicodeFromMBCSBufferPv
 0005:00000480       System.$pdata$_ZN6System11_Write0CharERNS_8TTextRecEc
 0005:0000048C       System.$pdata$_ZN6System14_Write0CStringERNS_8TTextRecEPc
 0005:00000498       System.$pdata$_ZN6System13_WriteCStringERNS_8TTextRecEPci
 0005:000004B0       System.$pdata$_ZN6System14_Write0LStringERNS_8TTextRecENS_11AnsiStringTILt0EEE
 0005:000004C8       System.$pdata$_ZN6System13_WriteLStringERNS_8TTextRecENS_11AnsiStringTILt0EEEi
 0005:000004E0       System.$pdata$_ZN6System14_Write0UStringERNS_8TTextRecENS_13UnicodeStringE
 0005:000004EC       System.$pdata$_ZN6System13_WriteUStringERNS_8TTextRecENS_13UnicodeStringEi
 0005:00000504       System.$pdata$_ZN6System8_WriteLnERNS_8TTextRecE
 0005:00000510       System.$pdata$_ZN6System7Power10Eei
 0005:0000051C       System.$pdata$_ZN6System9_GetCPUIDEjj
 0005:00000528       System.$pdata$_ZN6System8GetCPUIDEjj
 0005:00000534       System.$pdata$_ZN6System15InitializeCPUIDEv
 0005:00000540       System.$pdata$_ZN6System22_InitializeControlWordEv
 0005:0000054C       System.$pdata$_ZN6System8_FpuInitEv
 0005:00000558       System.$pdata$_ZN6System8_IntOverEv
 0005:00000564       System.$pdata$_ZN6System7TObject9ClassTypeEv
 0005:00000570       System.$pdata$_ZN6System7TObject9ClassNameEv
 0005:0000057C       System.$pdata$_ZN6System7TObject18QualifiedClassNameEv
 0005:00000594       System.$pdata$_ZN6System7TObject11ClassNameIsENS_13UnicodeStringE
 0005:000005AC       System.$pdata$_ZN6System7TObject11ClassParentEv
 0005:000005B8       System.$pdata$_ZN6System7TObject12InstanceSizeEv
 0005:000005C4       System.$pdata$_ZN6System7TObject11NewInstanceEv
 0005:000005D0       System.$pdata$_ZN6System7TObject12FreeInstanceEv
 0005:000005DC       System.$pdata$_ZN6System7TObject9CPP_ABI_1Ev
 0005:000005E8       System.$pdata$_ZN6System7TObject9CPP_ABI_2Ev
 0005:000005F4       System.$pdata$_ZN6System7TObject9CPP_ABI_3Ev
 0005:00000600       System.$pdata$_ZN6System7TObjectC3Ev
 0005:00000618       System.$pdata$_ZN6System7TObjectD0Ev
 0005:00000624       System.$pdata$_ZN6System7TObject4FreeEv
 0005:00000630       System.$pdata$_ZN6System7TObject9DisposeOfEv
 0005:0000063C       System.$pdata$_ZN6System7TObject17GetInterfaceTableEv
 0005:00000648       System.$pdata$_ZN6System7TObject12InitInstanceEPv
 0005:00000654       System.$pdata$_ZN6System7TObject15CleanupInstanceEv
 0005:00000660       System.$pdata$_ZN6System16InvokeImplGetterEPNS_7TObjectEy
 0005:0000066C       System.$pdata$_ZN6System7TObject6EqualsEPS0_
 0005:00000678       System.$pdata$_ZN6System7TObject11GetHashCodeEv
 0005:00000684       System.$pdata$_ZN6System7TObject12GetInterfaceERK5_GUIDPv
 0005:0000069C       System.$pdata$_ZN6System7TObject17GetInterfaceEntryERK5_GUID
 0005:000006A8       System.$pdata$_ZN6System7TObject8UnitNameEv
 0005:000006B4       System.$pdata$_ZN6System7TObject9UnitScopeEv
 0005:000006C0       System.$pdata$_ZN6System8_IsClassEPNS_7TObjectEPNS_10TMetaClassE
 0005:000006CC       System.$pdata$_ZN6System8_AsClassEPNS_7TObjectEPNS_10TMetaClassE
 0005:000006D8       System.$pdata$_ZN6System12_IntfAsClassENS_15DelphiInterfaceINS_10IInterfaceEEEPNS_10TMetaClassE
 0005:000006E4       System.$pdata$_ZN6System13GetDynaMethodEPNS_10TMetaClassEs
 0005:000006F0       System.$pdata$_ZN6System7TObject12InheritsFromEPNS_10TMetaClassE
 0005:000006FC       System.$pdata$_ZN6System7TObject9ClassInfoEv
 0005:00000708       System.$pdata$_ZN6System7TObject17SafeCallExceptionEPS0_Pv
 0005:00000714       System.$pdata$_ZN6System7TObject8ToStringEv
 0005:00000720       System.$pdata$_ZN6System7TObject14DefaultHandlerEPv
 0005:0000072C       System.$pdata$_ZN6System7TObject17AfterConstructionEv
 0005:00000738       System.$pdata$_ZN6System7TObject17BeforeDestructionEv
 0005:00000744       System.$pdata$_ZN6System7TObject8DispatchEPv
 0005:00000750       System.$pdata$_ZN6System11UTF8CompareERKNS_11SmallStringILh255EEES3_
 0005:0000075C       System.$pdata$_ZN6System7TObject13MethodAddressERKNS_11SmallStringILh255EEE
 0005:00000768       System.$pdata$_ZN6System23UTF8ShortStringToStringERKNS_11SmallStringILh255EEE
 0005:00000774       System.$pdata$_ZN6System7TObject13MethodAddressENS_13UnicodeStringE
 0005:00000780       System.$pdata$_ZN6System7TObject10MethodNameEPv
 0005:0000078C       System.$pdata$_ZN6System7TObject12FieldAddressERKNS_11SmallStringILh255EEE
 0005:00000798       System.$pdata$_ZN6System7TObject12FieldAddressENS_13UnicodeStringE
 0005:000007A4       System.$pdata$_ZN6System12_ClassCreateEPva
 0005:000007B0       System.$pdata$_ZN6System13_ClassDestroyEPNS_7TObjectE
 0005:000007BC       System.$pdata$_ZN6System18_AfterConstructionEPNS_7TObjectE
 0005:000007D4       System.$pdata$_ZN6System18_BeforeDestructionEPNS_7TObjectEa
 0005:000007E0       System.$pdata$_ZN6System8TMonitor9TSpinWait9SpinCycleEv
 0005:000007EC       System.$pdata$_ZN6System8TMonitor9TSpinLock5EnterEv
 0005:000007F8       System.$pdata$_ZN6System8TMonitor9TSpinLock4ExitEv
 0005:00000804       System.$pdata$_ZN6System8TMonitor4SpinEi
 0005:00000810       System.$pdata$_ZN6System8TMonitor16GetCacheLineSizeEv
 0005:00000828       System.$pdata$_ZN6System8TMonitor19CheckMonitorSupportEv
 0005:00000834       System.$pdata$_ZN6System8TMonitor17CheckOwningThreadEv
 0005:00000840       System.$pdata$_ZN6System8TMonitor6CreateEv
 0005:0000084C       System.$pdata$_ZN6System8TMonitor7DestroyEPNS_7TObjectE
 0005:00000858       System.$pdata$_ZN6System8TMonitor7DestroyEv
 0005:00000864       System.$pdata$_ZN6System8TMonitor5EnterEPNS_7TObjectE
 0005:00000870       System.$pdata$_ZN6System8TMonitor5EnterEPNS_7TObjectEj
 0005:0000087C       System.$pdata$_ZN6System8TMonitor13DequeueWaiterEv
 0005:00000894       System.$pdata$_ZN6System8TMonitor5EnterEj
 0005:000008A0       System.$pdata$_ZN6System8TMonitor4ExitEv
 0005:000008AC       System.$pdata$_ZN6System8TMonitor4ExitEPNS_7TObjectE
 0005:000008B8       System.$pdata$_ZN6System8TMonitor8GetEventEv
 0005:000008C4       System.$pdata$_ZN6System8TMonitor15GetFieldAddressEPNS_7TObjectE
 0005:000008D0       System.$pdata$_ZN6System8TMonitor10GetMonitorEPNS_7TObjectE
 0005:000008DC       System.$pdata$_ZN6System8TMonitor5PulseEv
 0005:000008E8       System.$pdata$_ZN6System8TMonitor5PulseEPNS_7TObjectE
 0005:000008F4       System.$pdata$_ZN6System8TMonitor8PulseAllEv
 0005:00000900       System.$pdata$_ZN6System8TMonitor8PulseAllEPNS_7TObjectE
 0005:0000090C       System.$pdata$_ZN6System8TMonitor11QueueWaiterERNS0_14TWaitingThreadE
 0005:00000924       System.$pdata$_ZN6System8TMonitor12RemoveWaiterERNS0_14TWaitingThreadE
 0005:0000093C       System.$pdata$_ZN6System8TMonitor12SetSpinCountEPNS_7TObjectEi
 0005:00000948       System.$pdata$_ZN6System8TMonitor8TryEnterEPNS_7TObjectE
 0005:00000954       System.$pdata$_ZN6System8TMonitor8TryEnterEv
 0005:00000960       System.$pdata$_ZN6System8TMonitor4WaitEPS0_j
 0005:00000978       System.$pdata$_ZN6System8TMonitor4WaitEPNS_7TObjectEj
 0005:00000984       System.$pdata$_ZN6System8TMonitor4WaitEPNS_7TObjectES2_j
 0005:00000990       System.$pdata$_ZN6System13NotifyReRaiseEPNS_7TObjectEPv
 0005:0000099C       System.$pdata$_ZN6System24NotifyNonDelphiExceptionEPvPNS_8TContextE
 0005:000009A8       System.$pdata$_ZN6System12NotifyExceptEy
 0005:000009B4       System.$pdata$_ZN6System14NotifyOnExceptEy
 0005:000009C0       System.$pdata$_ZN6System15NotifyAnyExceptEy
 0005:000009CC       System.$pdata$_ZN6System19NotifyExceptFinallyEy
 0005:000009D8       System.$pdata$_ZN6System15NotifyTerminateEy
 0005:000009E4       System.$pdata$_ZN6System15NotifyUnhandledEPvS0_
 0005:000009F0       System.$pdata$_ZN6System24FindOnExceptionDescEntryEPNS_18TDispatcherContextEPvPNS_8TExcDescE
 0005:000009FC       System.$pdata$_ZN6System23_DelphiExceptionHandlerEPNS_16TExceptionRecordEyPvS2_
 0005:00000A14       System.$pdata$_ZN6System14_RaiseAtExceptEPNS_7TObjectEPv
 0005:00000A20       System.$pdata$_ZN6System12_RaiseExceptEPNS_7TObjectE
 0005:00000A2C       System.$pdata$_ZN6System11_RaiseAgainEv
 0005:00000A38       System.$pdata$_ZN6System17_DestroyExceptionEP18TExceptionPointersy
 0005:00000A44       System.$pdata$_ZN6System11_DoneExceptEv
 0005:00000A50       System.$pdata$_ZN6System13FinalizeUnitsEv
 0005:00000A68       System.$pdata$_ZN6System9InitUnitsEv
 0005:00000A80       System.$pdata$_ZN6System9_StartExeEPNS_16PackageInfoTableEPNS_10TLibModuleE
 0005:00000A8C       System.$pdata$_ZN6System14LoadResStringAEPNS_13TResStringRecEt
 0005:00000AA4       System.$pdata$_ZN6System14LoadResStringWEPNS_13TResStringRecE
 0005:00000ABC       System.$pdata$_ZN6System14LoadResStringUEPNS_13TResStringRecE
 0005:00000AC8       System.$pdata$_ZN6System21_InitResStringImportsEPv
 0005:00000AE0       System.$pdata$_ZN6System12_InitImportsEPv
 0005:00000AEC       System.$pdata$_ZN6System25_FinalizeResStringImportsEPv
 0005:00000AF8       System.$pdata$_ZN6System16MakeErrorMessageEv
 0005:00000B04       System.$pdata$_ZN6System16_ExitDllLongJumpERNS_17__TExitDllJumpBufEi
 0005:00000B10       System.$pdata$_ZN6System7ExitDllEPNS_12TInitContextE
 0005:00000B1C       System.$pdata$_ZN6System17WriteErrorMessageEv
 0005:00000B28       System.$pdata$_ZN6System6_Halt0Ev
 0005:00000B34       System.$pdata$_ZN6System5_HaltEi
 0005:00000B40       System.$pdata$_ZN6System9_RunErrorEh
 0005:00000B4C       System.$pdata$_ZN6System19_UnhandledExceptionEv
 0005:00000B58       System.$pdata$_ZN6System17_NewUnicodeStringEi
 0005:00000B64       System.$pdata$_ZN6System14_NewAnsiStringEit
 0005:00000B70       System.$pdata$_ZN6System9WStrErrorEv
 0005:00000B7C       System.$pdata$_ZN6System8_UStrClrEPv
 0005:00000B88       System.$pdata$_ZN6System8_LStrClrEPv
 0005:00000B94       System.$pdata$_ZN6System8_WStrClrEPv
 0005:00000BA0       System.$pdata$_ZN6System13_UStrArrayClrEPvi
 0005:00000BAC       System.$pdata$_ZN6System13_LStrArrayClrEPvi
 0005:00000BB8       System.$pdata$_ZN6System13_WStrArrayClrEPvi
 0005:00000BC4       System.$pdata$_ZN6System11_UStrAddRefEPv
 0005:00000BD0       System.$pdata$_ZN6System13CharFromWCharEPciPKwii
 0005:00000BDC       System.$pdata$_ZN6System13CharFromWCharEPciPKwi
 0005:00000BE8       System.$pdata$_ZN6System13WCharFromCharEPwiPKcii
 0005:00000BF4       System.$pdata$_ZN6System18_UStrFromPWCharLenERNS_13UnicodeStringEPwi
 0005:00000C00       System.$pdata$_ZN6System18_WStrFromPWCharLenERNS_10WideStringEPwi
 0005:00000C0C       System.$pdata$_ZN6System17_LStrFromPCharLenERNS_11AnsiStringTILt0EEEPcit
 0005:00000C18       System.$pdata$_ZN6System24InternalUStrFromPCharLenERNS_13UnicodeStringEPcii
 0005:00000C24       System.$pdata$_ZN6System17_UStrFromPCharLenERNS_13UnicodeStringEPci
 0005:00000C30       System.$pdata$_ZN6System18_LStrFromPWCharLenERNS_11AnsiStringTILt0EEEPwit
 0005:00000C3C       System.$pdata$_ZN6System8_UStrAsgERNS_13UnicodeStringES0_
 0005:00000C48       System.$pdata$_ZN6System9_UStrLAsgERNS_13UnicodeStringES0_
 0005:00000C54       System.$pdata$_ZN6System8_WStrAsgERNS_10WideStringES0_
 0005:00000C60       System.$pdata$_ZN6System8_LStrAsgERNS_11AnsiStringTILt0EEES1_
 0005:00000C6C       System.$pdata$_ZN6System8_UStrLenENS_13UnicodeStringE
 0005:00000C78       System.$pdata$_ZN6System8_LStrLenENS_11AnsiStringTILt65535EEE
 0005:00000C84       System.$pdata$_ZN6System9_PCharLenEPc
 0005:00000C90       System.$pdata$_ZN6System10_PWCharLenEPw
 0005:00000C9C       System.$pdata$_ZN6System21InternalUniqueStringUERNS_13UnicodeStringE
 0005:00000CA8       System.$pdata$_ZN6System21InternalUniqueStringAERNS_11AnsiStringTILt0EEE
 0005:00000CB4       System.$pdata$_ZN6System14_UniqueStringUERNS_13UnicodeStringE
 0005:00000CC0       System.$pdata$_ZN6System14_UniqueStringAERNS_11AnsiStringTILt0EEE
 0005:00000CCC       System.$pdata$_ZN6System12UniqueStringERNS_13UnicodeStringE
 0005:00000CD8       System.$pdata$_ZN6System8_AStrCmpEPKcS1_x
 0005:00000CE4       System.$pdata$_ZN6System5_CopyERKNS_11SmallStringILh255EEEii
 0005:00000CF0       System.$pdata$_ZN6System14_LStrFromPCharERNS_11AnsiStringTILt0EEEPct
 0005:00000CFC       System.$pdata$_ZN6System15_LStrFromPWCharERNS_11AnsiStringTILt0EEEPwt
 0005:00000D08       System.$pdata$_ZN6System12_LStrToPCharENS_11AnsiStringTILt0EEE
 0005:00000D14       System.$pdata$_ZN6System14_LStrSetLengthERNS_11AnsiStringTILt0EEEit
 0005:00000D20       System.$pdata$_ZN6System13_LStrFromUStrERNS_11AnsiStringTILt0EEENS_13UnicodeStringEt
 0005:00000D2C       System.$pdata$_ZN6System16InternalUStrCatNERNS_13UnicodeStringEiPS0_
 0005:00000D38       System.$pdata$_ZN6System14_WCharToStringEPNS_11SmallStringILh255EEEwi
 0005:00000D44       System.$pdata$_ZN6System13_UStrToPWCharENS_13UnicodeStringE
 0005:00000D50       System.$pdata$_ZN6System14_UStrFromWCharERNS_13UnicodeStringEw
 0005:00000D5C       System.$pdata$_ZN6System14_UStrFromPCharERNS_13UnicodeStringEPc
 0005:00000D68       System.$pdata$_ZN6System15_UStrFromPWCharERNS_13UnicodeStringEPw
 0005:00000D74       System.$pdata$_ZN6System15_UStrFromWArrayERNS_13UnicodeStringEPwi
 0005:00000D80       System.$pdata$_ZN6System13_UStrFromLStrERNS_13UnicodeStringENS_11AnsiStringTILt0EEE
 0005:00000D8C       System.$pdata$_ZN6System13_WStrFromUStrERNS_10WideStringENS_13UnicodeStringE
 0005:00000D98       System.$pdata$_ZN6System15_UStrFromStringERNS_13UnicodeStringERKNS_11SmallStringILh255EEE
 0005:00000DA4       System.$pdata$_ZN6System14_UStrSetLengthERNS_13UnicodeStringEi
 0005:00000DB0       System.$pdata$_ZN6System8_UStrCatERNS_13UnicodeStringES0_
 0005:00000DBC       System.$pdata$_ZN6System9_UStrCat3ERNS_13UnicodeStringES0_S0_
 0005:00000DC8       System.$pdata$_ZN6System9_UStrCatNERNS_13UnicodeStringEi
 0005:00000DD4       System.$pdata$_ZN6System8_UStrCmpENS_13UnicodeStringES0_
 0005:00000DE0       System.$pdata$_ZN6System10_UStrEqualENS_13UnicodeStringES0_
 0005:00000DEC       System.$pdata$_ZN6System9_UStrCopyENS_13UnicodeStringEii
 0005:00000DF8       System.$pdata$_ZN6System3PosERKNS_11SmallStringILh255EEES3_i
 0005:00000E04       System.$pdata$_ZN6System3PosENS_13UnicodeStringES0_i
 0005:00000E10       System.$pdata$_ZN6System11SetCodePageERNS_11AnsiStringTILt65535EEEtb
 0005:00000E28       System.$pdata$_ZN6System17_InitializeRecordEPvS0_
 0005:00000E34       System.$pdata$_ZN6System16_InitializeArrayEPvS0_y
 0005:00000E40       System.$pdata$_ZN6System15_FinalizeRecordEPvS0_
 0005:00000E4C       System.$pdata$_ZN6System7_VarClrER8TVarData
 0005:00000E58       System.$pdata$_ZN6System14_FinalizeArrayEPvS0_y
 0005:00000E64       System.$pdata$_ZN6System9_FinalizeEPvS0_
 0005:00000E70       System.$pdata$_ZN6System8_VarCopyER8TVarDataRKS0_
 0005:00000E7C       System.$pdata$_ZN6System11_CopyRecordEPvS0_S0_
 0005:00000E88       System.$pdata$_ZN6System10MoveRecordEPvS0_S0_
 0005:00000E94       System.$pdata$_ZN6System10_CopyArrayEPvS0_S0_y
 0005:00000EA0       System.$pdata$_ZN6System9MoveArrayEPvS0_S0_x
 0005:00000EAC       System.$pdata$_ZN6System8_DisposeEPvS0_
 0005:00000EB8       System.$pdata$_ZN6System13FinalizeArrayEPvS0_y
 0005:00000EC4       System.$pdata$_ZN6System18_DispCallByIDErrorEPvNS_15DelphiInterfaceI9IDispatchEEPNS_9TDispDescES0_
 0005:00000ED0       System.$pdata$_ZN6System15_DynArrayLengthEPKv
 0005:00000EDC       System.$pdata$_ZN6System18InternalHasWeakRefEPNS_9TTypeInfoE
 0005:00000EE8       System.$pdata$_ZN6System13SysHasWeakRefEPKv
 0005:00000EF4       System.$pdata$_ZN6System17DynArraySetLengthERPvS0_xPx
 0005:00000F0C       System.$pdata$_ZN6System18_DynArraySetLengthERPvS0_x
 0005:00000F18       System.$pdata$_ZN6System13_DynArrayCopyERPvS0_S0_
 0005:00000F24       System.$pdata$_ZN6System18_DynArrayCopyRangeERPvS0_S0_xx
 0005:00000F30       System.$pdata$_ZN6System14_DynArrayClearERPvS0_
 0005:00000F3C       System.$pdata$_ZN6System12_DynArrayAsgERPvS0_S0_
 0005:00000F48       System.$pdata$_ZN6System15_DynArrayAddRefEPv
 0005:00000F54       System.$pdata$_ZN6System23DelayLoadResourceModuleEPNS_10TLibModuleE
 0005:00000F60       System.$pdata$_ZN6System21FindResourceHInstanceEy
 0005:00000F6C       System.$pdata$_ZN6System20InitializeLocaleDataEv
 0005:00000F78       System.$pdata$_ZN6System18FinalizeLocaleDateEv
 0005:00000F84       System.$pdata$_ZN6System10StringCopyEPwiS0_
 0005:00000F90       System.$pdata$_ZZN6System14GetUILanguagesEtE13LastHyphenPosPvNS_13UnicodeStringE
 0005:00000FA8       System.$pdata$_ZZN6System14GetUILanguagesEtE23ConvertResToUILanguagesPvPc
 0005:00000FC0       System.$pdata$_ZZN6System14GetUILanguagesEtE24GetPreferredLangForOldOSPvt
 0005:00000FD8       System.$pdata$_ZZN6System14GetUILanguagesEtE26CheckDifferentLanguageListPvPwS1_i
 0005:00000FE4       System.$pdata$_ZZN6System14GetUILanguagesEtE17ThreadUILanguagesPvRi
 0005:00000FF0       System.$pdata$_ZZN6System14GetUILanguagesEtE24GetPreferredLangForNewOSPvt
 0005:00000FFC       System.$pdata$_ZN6System14GetUILanguagesEt
 0005:00001014       System.$pdata$_ZZN6System25InternalGetLocaleOverrideENS_13UnicodeStringEE6FindBSPvPw
 0005:00001020       System.$pdata$_ZZN6System25InternalGetLocaleOverrideENS_13UnicodeStringEE10ToLongPathPvPwi
 0005:0000102C       System.$pdata$_ZN6System25InternalGetLocaleOverrideENS_13UnicodeStringE
 0005:00001050       System.$pdata$_ZN6System17GetLocaleOverrideENS_13UnicodeStringE
 0005:00001068       System.$pdata$_ZN6System17SetLocaleOverrideENS_13UnicodeStringE
 0005:00001074       System.$pdata$_ZZN6System21GetResourceModuleNameENS_13UnicodeStringES0_E16ResouceDLLExistsPvS0_
 0005:0000108C       System.$pdata$_ZZN6System21GetResourceModuleNameENS_13UnicodeStringES0_E16LoadLanguageListPvS0_S0_
 0005:000010A4       System.$pdata$_ZZN6System21GetResourceModuleNameENS_13UnicodeStringES0_E18Load3LettersModulePvS0_
 0005:000010BC       System.$pdata$_ZN6System21GetResourceModuleNameENS_13UnicodeStringES0_
 0005:000010D4       System.$pdata$_ZN6System18LoadResourceModuleEPwb
 0005:000010EC       System.$pdata$_ZN6System19EnumResourceModulesEPFbyPvES0_
 0005:000010F8       System.$pdata$_ZN6System19AddModuleUnloadProcEPFvyE
 0005:00001104       System.$pdata$_ZN6System22RemoveModuleUnloadProcEPFvyE
 0005:00001110       System.$pdata$_ZN6System18NotifyModuleUnloadEy
 0005:00001128       System.$pdata$_ZN6System14RegisterModuleEPNS_10TLibModuleE
 0005:00001134       System.$pdata$_ZN6System16UnregisterModuleEPNS_10TLibModuleE
 0005:0000114C       System.$pdata$_ZN6System10_IntfClearERNS_15DelphiInterfaceINS_10IInterfaceEEE
 0005:00001158       System.$pdata$_ZN6System9_IntfCopyERNS_15DelphiInterfaceINS_10IInterfaceEEES2_
 0005:00001164       System.$pdata$_ZN6System9_IntfCastERNS_15DelphiInterfaceINS_10IInterfaceEEES2_RK5_GUID
 0005:00001170       System.$pdata$_ZN6System11_IntfAddRefENS_15DelphiInterfaceINS_10IInterfaceEEE
 0005:0000117C       System.$pdata$_ZN6System9TInstItem6CreateEv
 0005:00001188       System.$pdata$_ZN6System9TInstItem13ClearWeakRefsEv
 0005:00001194       System.$pdata$_ZN6System9TInstItem4LockEv
 0005:000011A0       System.$pdata$_ZN6System9TInstItem6UnlockEv
 0005:000011AC       System.$pdata$_ZN6System9TInstItem7DestroyEv
 0005:000011B8       System.$pdata$_ZN6System9TInstItem4FreeEv
 0005:000011C4       System.$pdata$_ZN6System9TInstItem11RegisterRefERNS_11StaticArrayINS_12DynamicArrayIPPvEELi31EEES3_
 0005:000011DC       System.$pdata$_ZN6System9TInstItem13UnregisterRefERNS_11StaticArrayINS_12DynamicArrayIPPvEELi31EEES3_
 0005:000011F4       System.$pdata$_ZN6System9TInstItem15RegisterWeakRefEPv
 0005:00001200       System.$pdata$_ZN6System9TInstItem17UnregisterWeakRefEPv
 0005:0000120C       System.$pdata$_ZN6System9TInstItem21RegisterWeakMethodRefEPv
 0005:00001218       System.$pdata$_ZN6System9TInstItem23UnregisterWeakMethodRefEPv
 0005:00001224       System.$pdata$_ZN6System11TInstBucket11AddInstItemEiPNS_9TInstItemE
 0005:00001230       System.$pdata$_ZN6System11TInstBucket12FindInstItemEPvRi
 0005:0000123C       System.$pdata$_ZN6System11TInstBucket8FinalizeEv
 0005:00001248       System.$pdata$_ZN6System11TInstBucket10InitializeEv
 0005:00001254       System.$pdata$_ZN6System11TInstBucket4LockEv
 0005:00001260       System.$pdata$_ZN6System11TInstBucket14RemoveInstItemEPv
 0005:0000126C       System.$pdata$_ZN6System11TInstBucket6UnlockEv
 0005:00001278       System.$pdata$_ZN6System12TInstHashMap12FreeInstItemEPNS_9TInstItemE
 0005:00001284       System.$pdata$_ZN6System12TInstHashMap11NewInstItemEPv
 0005:00001290       System.$pdata$_ZN6System12TInstHashMap11PopInstItemEv
 0005:0000129C       System.$pdata$_ZN6System12TInstHashMap8FinalizeEv
 0005:000012A8       System.$pdata$_ZN6System12TInstHashMap10InitializeEv
 0005:000012C0       System.$pdata$_ZN6System12TInstHashMap7DestroyEPv
 0005:000012D8       System.$pdata$_ZN6System12TInstHashMap15RegisterWeakRefEPvS1_
 0005:000012F0       System.$pdata$_ZN6System12TInstHashMap17UnregisterWeakRefEPvS1_
 0005:00001308       System.$pdata$_ZN6System12TInstHashMap21RegisterWeakMethodRefEPvS1_
 0005:00001320       System.$pdata$_ZN6System12TInstHashMap23UnregisterWeakMethodRefEPvS1_
 0005:00001338       System.$pdata$_ZN6System12TInstHashMap12IsRegisteredEPv
 0005:00001350       System.$pdata$_ZN6System18MarkWeakReferencedEPNS_7TObjectE
 0005:0000135C       System.$pdata$_ZN6System15RegisterWeakRefEPvPNS_7TObjectE
 0005:00001368       System.$pdata$_ZN6System17UnregisterWeakRefEPvPNS_7TObjectE
 0005:00001374       System.$pdata$_ZN6System16_CleanupInstanceEPv
 0005:00001380       System.$pdata$_ZN6System14_IntfWeakClearERNS_15DelphiInterfaceINS_10IInterfaceEEE
 0005:0000138C       System.$pdata$_ZN6System13_IntfWeakCopyERNS_15DelphiInterfaceINS_10IInterfaceEEES2_
 0005:000013A4       System.$pdata$_ZN6System13UnicodeToUtf8EPcjPwj
 0005:000013B0       System.$pdata$_ZN6System13Utf8ToUnicodeEPwjPcj
 0005:000013BC       System.$pdata$_ZN6System23UTF8EncodeToShortStringENS_13UnicodeStringE
 0005:000013C8       System.$pdata$_ZN6System19UTF8ToUnicodeStringERKNS_11SmallStringILh255EEE
 0005:000013E0       System.$pdata$_ZN6System12UTF8ToStringERKNS_11SmallStringILh255EEE
 0005:000013EC       System.$pdata$_ZN6System13LoadResStringEPNS_13TResStringRecE
 0005:000013F8       System.$pdata$_ZN6System22LocaleCharsFromUnicodeEjjPwiPciS1_Pi
 0005:00001404       System.$pdata$_ZN6System22UnicodeFromLocaleCharsEjjPciPwi
 0005:00001410       System.$pdata$_ZN6System11GetCPUCountEv
 0005:0000141C       System.$pdata$_ZN6System20SetUTF8CompareLocaleEv
 0005:00001428       System.$pdata$_ZN6System5TGUID12_op_EqualityERK5_GUIDS3_
 0005:00001434       System.$pdata$_ZN6System5TGUID14_op_InequalityERK5_GUIDS3_
 0005:00001440       System.$pdata$_ZN6System5TGUID6CreateEPKvb
 0005:0000144C       System.$pdata$_ZN6System5TGUID6CreateEPKhijb
 0005:00001458       System.$pdata$_ZN6System5TGUID5EmptyEv
 0005:00001464       System.$pdata$_ZN6System12FinalizationEv
 0005:0000147C       System.$pdata$_ZN6System14initializationEv
 0005:00001494       SysInit.$pdata$_ZN7Sysinit17_DelayLoadHelper2ERPvS0_
 0005:000014A0       SysInit.$pdata$_ZN7Sysinit14AllocTlsBufferEi
 0005:000014AC       SysInit.$pdata$_ZN7Sysinit10GetTlsSizeEv
 0005:000014B8       SysInit.$pdata$_ZN7Sysinit13InitThreadTLSEv
 0005:000014C4       SysInit.$pdata$_ZN7Sysinit7_GetTlsEv
 0005:000014D0       SysInit.$pdata$_ZN7Sysinit16InitializeModuleEv
 0005:000014DC       SysInit.$pdata$_ZN7Sysinit14__dbkDummyProcEv
 0005:000014E8       SysInit.$pdata$_ZN7Sysinit14__dbkFCallArgsEPvS0_S0_S0_S0_S0_S0_S0_S0_S0_S0_S0_S0_S0_S0_S0_S0_S0_S0_S0_S0_S0_S0_S0_S0_S0_S0_S0_S0_S0_
 0005:000014F4       SysInit.$pdata$_ZN7Sysinit19__dbk_fcall_wrapperEv
 0005:0000150C       SysInit.$pdata$_ZN7Sysinit8_InitExeEPv
 0005:00001518       SysInit..$pdata$$pdata$__delayLoadHelper2
 0005:00001524       SysInit..$pdata$$pdata$?FLoadedAtPreferredAddress@@YA_NPEAU_IMAGE_NT_HEADERS64@@PEAUHINSTANCE__@@@Z
 0005:00001530       SysInit..$pdata$$pdata$__FUnloadDelayLoadedDLL2
 0005:0000153C       SysInit..$pdata$$pdata$?__strlen@@YA_KPEBD@Z
 0005:00001548       SysInit..$pdata$$pdata$?OverlayIAT@@YAXPEAU_IMAGE_THUNK_DATA64@@PEBU1@@Z
 0005:00001554       SysInit..$pdata$$pdata$?__memcpy@@YAPEAXPEAXPEBX_K@Z
 0005:00001560       SysInit..$pdata$$pdata$__HrLoadAllImportsForDll
 0005:0000156C       SysInit..$pdata$$pdata$ShutdownDelayHelp2
 0005:00001578       SysInit..$pdata$$pdata$??0ULI@@QEAA@PEBUImgDelayDescr@@@Z
 0005:00001584       SysInit..$pdata$$pdata$??2ULI@@SAPEAX_K@Z
 0005:00001590       SysInit..$pdata$$pdata$?CountOfImports@@YAIPEBU_IMAGE_THUNK_DATA64@@@Z
 0005:0000159C       SysInit..$pdata$$pdata$??_GULI@@QEAAPEAXI@Z
 0005:000015A8       SysInit..$pdata$$pdata$??1ULI@@QEAA@XZ
 0005:000015B4       SysInit..$pdata$$pdata$??3ULI@@SAXPEAX@Z
 0005:000015C0       SysInit..$pdata$$pdata$?Unlink@ULI@@QEAAXXZ
 0005:000015CC       SysInit..$pdata$$pdata$HRESULT_FROM_WIN32
 0005:000015D8       SysInit.$pdata$_ZN7Sysinit12FinalizationEv
 0005:000015E4       SysInit.$pdata$_ZN7Sysinit14initializationEv
 0005:000015F0       System.Types.$pdata$_ZN6System5Types12FinalizationEv
 0005:000015FC       System.Types.$pdata$_ZN6System5Types14initializationEv
 0005:00001608       System.UITypes.$pdata$_ZN6System7Uitypes12FinalizationEv
 0005:00001614       System.UITypes.$pdata$_ZN6System7Uitypes14initializationEv
 0005:00001620       Winapi.Windows.$pdata$_ZN6Winapi7Windows14GetProcAddressEyPw
 0005:00001644       Winapi.Windows.$pdata$_ZN6Winapi7Windows15InitVersionInfoEv
 0005:00001650       Winapi.Windows.$pdata$_ZN6Winapi7Windows12FinalizationEv
 0005:0000165C       Winapi.Windows.$pdata$_ZN6Winapi7Windows14initializationEv
 0005:00001668       System.SysConst.$pdata$_ZN6System8Sysconst12FinalizationEv
 0005:00001674       System.SysConst.$pdata$_ZN6System8Sysconst14initializationEv
 0005:00001680       Winapi.ImageHlp.$pdata$_ZN6Winapi8Imagehlp12FinalizationEv
 0005:0000168C       Winapi.ImageHlp.$pdata$_ZN6Winapi8Imagehlp14initializationEv
 0005:00001698       Winapi.SHFolder.$pdata$_ZN6Winapi8Shfolder12FinalizationEv
 0005:000016A4       Winapi.SHFolder.$pdata$_ZN6Winapi8Shfolder14initializationEv
 0005:000016B0       Winapi.PsAPI.$pdata$_ZN6Winapi5Psapi12FinalizationEv
 0005:000016BC       Winapi.PsAPI.$pdata$_ZN6Winapi5Psapi14initializationEv
 0005:000016C8       System.RTLConsts.$pdata$_ZN6System9Rtlconsts12FinalizationEv
 0005:000016D4       System.RTLConsts.$pdata$_ZN6System9Rtlconsts14initializationEv
 0005:000016E0       System.Character.$pdata$_ZZN6System9Character19CharTableInitializeEvE8bin_dataPv
 0005:000016EC       System.Character.$pdata$_ZN6System9Character19CharTableInitializeEv
 0005:000016F8       System.Character.$pdata$_ZN6System9Character26InternalGetUnicodeCategoryEj
 0005:00001704       System.Character.$pdata$_ZN6System9Character11TCharHelper8IsLetterEv
 0005:00001710       System.Character.$pdata$_ZN6System9Character11TCharHelper8IsNumberEv
 0005:0000171C       System.Character.$pdata$_ZN6System9Character12FinalizationEv
 0005:00001728       System.Character.$pdata$_ZN6System9Character14initializationEv
 0005:00001734       System.Internal.ExcUtils.$pdata$_ZN6System8Internal8Excutils12FinalizationEv
 0005:0000174C       System.Internal.ExcUtils.$pdata$_ZN6System8Internal8Excutils14initializationEv
 0005:00001758       System.SysUtils.$pdata$_ZN6System8Sysutils10TLanguagesv04cctrEv
 0005:00001764       System.SysUtils.$pdata$_ZN6System8Sysutils10TOSVersionv04cdtrEv
 0005:00001770       System.SysUtils.$pdata$_ZN6System8Sysutils12ConvertErrorEPNS_13TResStringRecE
 0005:0000177C       System.SysUtils.$pdata$_ZN6System8Sysutils15ConvertErrorFmtEPNS_13TResStringRecEPKNS_7TVarRecEi
 0005:00001788       System.SysUtils.$pdata$_ZN6System8Sysutils10CompareStrENS_13UnicodeStringES1_
 0005:00001794       System.SysUtils.$pdata$_ZN6System8Sysutils11CompareTextENS_13UnicodeStringES1_
 0005:000017A0       System.SysUtils.$pdata$_ZN6System8Sysutils13AnsiUpperCaseENS_13UnicodeStringE
 0005:000017AC       System.SysUtils.$pdata$_ZN6System8Sysutils13AnsiLowerCaseENS_13UnicodeStringE
 0005:000017B8       System.SysUtils.$pdata$_ZN6System8Sysutils11_IntToStr32Ejb
 0005:000017C4       System.SysUtils.$pdata$_ZN6System8Sysutils11_IntToStr64Eyb
 0005:000017D0       System.SysUtils.$pdata$_ZN6System8Sysutils8IntToStrEi
 0005:000017DC       System.SysUtils.$pdata$_ZN6System8Sysutils8IntToStrEx
 0005:000017E8       System.SysUtils.$pdata$_ZN6System8Sysutils9UIntToStrEj
 0005:000017F4       System.SysUtils.$pdata$_ZN6System8Sysutils9UIntToStrEy
 0005:00001800       System.SysUtils.$pdata$_ZN6System8Sysutils18_UInt32ToHexStringEjiiw
 0005:00001818       System.SysUtils.$pdata$_ZN6System8Sysutils18_UInt64ToHexStringEyiiw
 0005:00001830       System.SysUtils.$pdata$_ZN6System8Sysutils12_UIntToHex32Eji
 0005:0000183C       System.SysUtils.$pdata$_ZN6System8Sysutils12_UIntToHex64Eyi
 0005:00001848       System.SysUtils.$pdata$_ZN6System8Sysutils8IntToHexEii
 0005:00001854       System.SysUtils.$pdata$_ZN6System8Sysutils8IntToHexExi
 0005:00001860       System.SysUtils.$pdata$_ZN6System8Sysutils8StrToIntENS_13UnicodeStringE
 0005:0000186C       System.SysUtils.$pdata$_ZN6System8Sysutils11StrToIntDefENS_13UnicodeStringEi
 0005:00001878       System.SysUtils.$pdata$_ZN6System8Sysutils11TryStrToIntENS_13UnicodeStringERi
 0005:00001884       System.SysUtils.$pdata$_ZN6System8Sysutils17EnumStringModulesEyPv
 0005:00001890       System.SysUtils.$pdata$_ZN6System8Sysutils18FindStringResourceEy
 0005:000018A8       System.SysUtils.$pdata$_ZN6System8Sysutils7LoadStrEy
 0005:000018B4       System.SysUtils.$pdata$_ZN6System8Sysutils15ExtractFileNameENS_13UnicodeStringE
 0005:000018C0       System.SysUtils.$pdata$_ZN6System8Sysutils26BackfillGetDiskFreeSpaceExEPwRxS2_Px
 0005:000018CC       System.SysUtils.$pdata$_ZN6System8Sysutils6StrEndEPKw
 0005:000018D8       System.SysUtils.$pdata$_ZN6System8Sysutils7StrMoveEPwPKwj
 0005:000018E4       System.SysUtils.$pdata$_ZN6System8Sysutils8StrLCopyEPwPKwj
 0005:000018F0       System.SysUtils.$pdata$_ZN6System8Sysutils8StrRScanEPKww
 0005:000018FC       System.SysUtils.$pdata$_ZN6System8Sysutils6StrPosEPKwS2_
 0005:00001908       System.SysUtils.$pdata$_ZN6System8Sysutils11FormatErrorEiPwj
 0005:00001914       System.SysUtils.$pdata$_ZN6System8Sysutils9FormatBufEPwjPKvjPKNS_7TVarRecEiRKNS0_15TFormatSettingsE
 0005:00001920       System.SysUtils.$pdata$_ZN6System8Sysutils7StrLFmtEPwjS1_PKNS_7TVarRecEi
 0005:0000192C       System.SysUtils.$pdata$_ZN6System8Sysutils7StrLFmtEPwjS1_PKNS_7TVarRecEiRKNS0_15TFormatSettingsE
 0005:00001938       System.SysUtils.$pdata$_ZN6System8Sysutils6FormatENS_13UnicodeStringEPKNS_7TVarRecEi
 0005:00001944       System.SysUtils.$pdata$_ZN6System8Sysutils6FormatENS_13UnicodeStringEPKNS_7TVarRecEiRKNS0_15TFormatSettingsE
 0005:00001950       System.SysUtils.$pdata$_ZN6System8Sysutils6FmtStrERNS_13UnicodeStringES1_PKNS_7TVarRecEiRKNS0_15TFormatSettingsE
 0005:0000195C       System.SysUtils.$pdata$_ZZN6System8Sysutils13WideFormatBufEPvjPKvjPKNS_7TVarRecEiRKNS0_15TFormatSettingsEE10ApplyWidthS1_ii
 0005:00001968       System.SysUtils.$pdata$_ZZN6System8Sysutils13WideFormatBufEPvjPKvjPKNS_7TVarRecEiRKNS0_15TFormatSettingsEE6AddBufS1_PKwii
 0005:00001974       System.SysUtils.$pdata$_ZZN6System8Sysutils13WideFormatBufEPvjPKvjPKNS_7TVarRecEiRKNS0_15TFormatSettingsEE22VariantToUnicodeStringS1_RK8TVarData
 0005:00001980       System.SysUtils.$pdata$_ZN6System8Sysutils13WideFormatBufEPvjPKvjPKNS_7TVarRecEiRKNS0_15TFormatSettingsE
 0005:00001998       System.SysUtils.$pdata$_ZZN6System8Sysutils19InternalFloatToTextEPhbPKvNS0_11TFloatValueENS0_12TFloatFormatEiiRKNS0_15TFormatSettingsEE10AppendCharPvw
 0005:000019A4       System.SysUtils.$pdata$_ZZN6System8Sysutils19InternalFloatToTextEPhbPKvNS0_11TFloatValueENS0_12TFloatFormatEiiRKNS0_15TFormatSettingsEE12AppendStringPvNS_13UnicodeStringE
 0005:000019B0       System.SysUtils.$pdata$_ZZN6System8Sysutils19InternalFloatToTextEPhbPKvNS0_11TFloatValueENS0_12TFloatFormatEiiRKNS0_15TFormatSettingsEE8GetDigitPv
 0005:000019BC       System.SysUtils.$pdata$_ZZN6System8Sysutils19InternalFloatToTextEPhbPKvNS0_11TFloatValueENS0_12TFloatFormatEiiRKNS0_15TFormatSettingsEE12FormatNumberPv
 0005:000019C8       System.SysUtils.$pdata$_ZZN6System8Sysutils19InternalFloatToTextEPhbPKvNS0_11TFloatValueENS0_12TFloatFormatEiiRKNS0_15TFormatSettingsEE14FormatExponentPv
 0005:000019E0       System.SysUtils.$pdata$_ZN6System8Sysutils19InternalFloatToTextEPhbPKvNS0_11TFloatValueENS0_12TFloatFormatEiiRKNS0_15TFormatSettingsE
 0005:000019F8       System.SysUtils.$pdata$_ZN6System8Sysutils11FloatToTextEPwPKvNS0_11TFloatValueENS0_12TFloatFormatEiiRKNS0_15TFormatSettingsE
 0005:00001A04       System.SysUtils.$pdata$_ZZN6System8Sysutils14FloatToDecimalERNS0_9TFloatRecEPKvNS0_11TFloatValueEiiE11GetBcdBytesPve
 0005:00001A10       System.SysUtils.$pdata$_ZZN6System8Sysutils14FloatToDecimalERNS0_9TFloatRecEPKvNS0_11TFloatValueEiiE12ExtToDecimalPve
 0005:00001A1C       System.SysUtils.$pdata$_ZZN6System8Sysutils14FloatToDecimalERNS0_9TFloatRecEPKvNS0_11TFloatValueEiiE13CurrToDecimalPvNS_8CurrencyE
 0005:00001A34       System.SysUtils.$pdata$_ZN6System8Sysutils14FloatToDecimalERNS0_9TFloatRecEPKvNS0_11TFloatValueEii
 0005:00001A40       System.SysUtils.$pdata$_ZN6System8Sysutils17ValidateTimeStampENS0_10TTimeStampE
 0005:00001A4C       System.SysUtils.$pdata$_ZN6System8Sysutils19TimeStampToDateTimeENS0_10TTimeStampE
 0005:00001A58       System.SysUtils.$pdata$_ZN6System8Sysutils13TryEncodeTimeEttttRNS_9TDateTimeE
 0005:00001A64       System.SysUtils.$pdata$_ZN6System8Sysutils10EncodeTimeEtttt
 0005:00001A70       System.SysUtils.$pdata$_ZN6System8Sysutils10IsLeapYearEt
 0005:00001A7C       System.SysUtils.$pdata$_ZN6System8Sysutils13TryEncodeDateEtttRNS_9TDateTimeE
 0005:00001A88       System.SysUtils.$pdata$_ZN6System8Sysutils10EncodeDateEttt
 0005:00001A94       System.SysUtils.$pdata$_ZN6System8Sysutils3NowEv
 0005:00001AA0       System.SysUtils.$pdata$_ZN6System8Sysutils12GetLocaleStrEiiNS_13UnicodeStringE
 0005:00001AAC       System.SysUtils.$pdata$_ZN6System8Sysutils13GetLocaleCharEiiw
 0005:00001AB8       System.SysUtils.$pdata$_ZN6System8Sysutils15TFormatSettings6CreateEj
 0005:00001AD0       System.SysUtils.$pdata$_ZN6System8Sysutils15TFormatSettings6CreateENS_13UnicodeStringE
 0005:00001AE8       System.SysUtils.$pdata$_ZN6System8Sysutils15TFormatSettings6CreateEv
 0005:00001AF4       System.SysUtils.$pdata$_ZN6System8Sysutils15TFormatSettings9InvariantEv
 0005:00001B00       System.SysUtils.$pdata$_ZN6System8Sysutils15TFormatSettings16AdjustLocaleNameENS_13UnicodeStringES2_
 0005:00001B0C       System.SysUtils.$pdata$_ZN6System8Sysutils15TFormatSettings11GetDayNamesEjRS1_
 0005:00001B24       System.SysUtils.$pdata$_ZN6System8Sysutils15TFormatSettings13GetMonthNamesEjRS1_
 0005:00001B3C       System.SysUtils.$pdata$_ZN6System8Sysutils14FSEnumEraNamesEPw
 0005:00001B54       System.SysUtils.$pdata$_ZN6System8Sysutils20FSEnumEraYearOffsetsEPw
 0005:00001B6C       System.SysUtils.$pdata$_ZN6System8Sysutils15TFormatSettings17GetEraInformationEjRS1_
 0005:00001B90       System.SysUtils.$pdata$_ZN6System8Sysutils15TFormatSettings9GetStringEjiiPKPvi
 0005:00001B9C       System.SysUtils.$pdata$_ZZN6System8Sysutils15TFormatSettings19TranslateDateFormatEjiNS_13UnicodeStringEwE16FixDateSeparatorPvRS2_
 0005:00001BA8       System.SysUtils.$pdata$_ZN6System8Sysutils15TFormatSettings19TranslateDateFormatEjiNS_13UnicodeStringEw
 0005:00001BC0       System.SysUtils.$pdata$_ZN6System8Sysutils15TFormatSettings16GetEraYearOffsetENS_13UnicodeStringE
 0005:00001BCC       System.SysUtils.$pdata$_ZZN6System8Sysutils21ExceptionErrorMessageEPNS_7TObjectEPvPwiE11ConvertAddrS3_S3_
 0005:00001BD8       System.SysUtils.$pdata$_ZN6System8Sysutils21ExceptionErrorMessageEPNS_7TObjectEPvPwi
 0005:00001BF0       System.SysUtils.$pdata$_ZN6System8Sysutils13ShowExceptionEPNS_7TObjectEPv
 0005:00001C08       System.SysUtils.$pdata$_ZN6System8Sysutils9ExceptionC3ENS_13UnicodeStringE
 0005:00001C20       System.SysUtils.$pdata$_ZN6System8Sysutils9ExceptionC3ENS_13UnicodeStringEPKNS_7TVarRecEi
 0005:00001C44       System.SysUtils.$pdata$_ZN6System8Sysutils9ExceptionC3Ey
 0005:00001C68       System.SysUtils.$pdata$_ZN6System8Sysutils9ExceptionC3EPNS_13TResStringRecE
 0005:00001C80       System.SysUtils.$pdata$_ZN6System8Sysutils9ExceptionC3EyPKNS_7TVarRecEi
 0005:00001CA4       System.SysUtils.$pdata$_ZN6System8Sysutils9ExceptionC3EPNS_13TResStringRecEPKNS_7TVarRecEi
 0005:00001CC8       System.SysUtils.$pdata$_ZN6System8Sysutils9ExceptionC3ENS_13UnicodeStringEi
 0005:00001CE0       System.SysUtils.$pdata$_ZN6System8Sysutils9ExceptionC3ENS_13UnicodeStringEPKNS_7TVarRecEii
 0005:00001D04       System.SysUtils.$pdata$_ZN6System8Sysutils9ExceptionC3Eyi
 0005:00001D28       System.SysUtils.$pdata$_ZN6System8Sysutils9ExceptionC3EPNS_13TResStringRecEi
 0005:00001D40       System.SysUtils.$pdata$_ZN6System8Sysutils9ExceptionC3EyPKNS_7TVarRecEii
 0005:00001D64       System.SysUtils.$pdata$_ZN6System8Sysutils9ExceptionC3EPNS_13TResStringRecEPKNS_7TVarRecEii
 0005:00001D88       System.SysUtils.$pdata$_ZN6System8Sysutils9ExceptionD0Ev
 0005:00001D94       System.SysUtils.$pdata$_ZN6System8Sysutils9Exception16GetBaseExceptionEv
 0005:00001DA0       System.SysUtils.$pdata$_ZN6System8Sysutils9Exception13GetStackTraceEv
 0005:00001DAC       System.SysUtils.$pdata$_ZN6System8Sysutils9Exception19RaiseOuterExceptionEPS1_
 0005:00001DB8       System.SysUtils.$pdata$_ZN6System8Sysutils9Exception19ThrowOuterExceptionEPS1_
 0005:00001DC4       System.SysUtils.$pdata$_ZN6System8Sysutils9Exception16RaisingExceptionEPNS_16TExceptionRecordE
 0005:00001DD0       System.SysUtils.$pdata$_ZN6System8Sysutils9Exception17SetInnerExceptionEv
 0005:00001DDC       System.SysUtils.$pdata$_ZN6System8Sysutils9Exception12SetStackInfoEPv
 0005:00001DE8       System.SysUtils.$pdata$_ZN6System8Sysutils9Exception8ToStringEv
 0005:00001DF4       System.SysUtils.$pdata$_ZN6System8Sysutils14EHeapException12FreeInstanceEv
 0005:00001E00       System.SysUtils.$pdata$_ZN6System8Sysutils14EHeapException16RaisingExceptionEPNS_16TExceptionRecordE
 0005:00001E0C       System.SysUtils.$pdata$_ZN6System8Sysutils16CreateInOutErrorEv
 0005:00001E18       System.SysUtils.$pdata$_ZN6System8Sysutils12ErrorHandlerEhPv
 0005:00001E24       System.SysUtils.$pdata$_ZN6System8Sysutils18AssertErrorHandlerENS_13UnicodeStringES1_iPv
 0005:00001E3C       System.SysUtils.$pdata$_ZN6System8Sysutils20AbstractErrorHandlerEv
 0005:00001E48       System.SysUtils.$pdata$_ZN6System8Sysutils12MapExceptionEPNS_16TExceptionRecordE
 0005:00001E54       System.SysUtils.$pdata$_ZN6System8Sysutils17GetExceptionClassEPNS_16TExceptionRecordE
 0005:00001E60       System.SysUtils.$pdata$_ZZN6System8Sysutils18GetExceptionObjectEPNS_16TExceptionRecordEE14CreateAVObjectPv
 0005:00001E78       System.SysUtils.$pdata$_ZN6System8Sysutils18GetExceptionObjectEPNS_16TExceptionRecordE
 0005:00001E90       System.SysUtils.$pdata$_ZN6System8Sysutils17RaiseExceptObjectEPNS_16TExceptionRecordE
 0005:00001E9C       System.SysUtils.$pdata$_ZN6System8Sysutils13ExceptHandlerEPNS_7TObjectEPv
 0005:00001EA8       System.SysUtils.$pdata$_ZN6System8Sysutils14InitExceptionsEv
 0005:00001EB4       System.SysUtils.$pdata$_ZN6System8Sysutils14DoneExceptionsEv
 0005:00001EC0       System.SysUtils.$pdata$_ZN6System8Sysutils9Exceptionv04cctrEv
 0005:00001ECC       System.SysUtils.$pdata$_ZN6System8Sysutils9Exceptionv04cdtrEv
 0005:00001ED8       System.SysUtils.$pdata$_ZN6System8Sysutils18WaitForSyncWaitObjEPvj
 0005:00001EE4       System.SysUtils.$pdata$_ZN6System8Sysutils4PushERPNS0_16TEventItemHolderES2_
 0005:00001EF0       System.SysUtils.$pdata$_ZN6System8Sysutils3PopERPNS0_16TEventItemHolderE
 0005:00001EFC       System.SysUtils.$pdata$_ZN6System8Sysutils10NewSyncObjEv
 0005:00001F08       System.SysUtils.$pdata$_ZN6System8Sysutils11FreeSyncObjEPv
 0005:00001F14       System.SysUtils.$pdata$_ZN6System8Sysutils10NewWaitObjEv
 0005:00001F20       System.SysUtils.$pdata$_ZN6System8Sysutils11FreeWaitObjEPv
 0005:00001F2C       System.SysUtils.$pdata$_ZN6System8Sysutils15WaitOrSignalObjEPvS1_j
 0005:00001F38       System.SysUtils.$pdata$_ZN6System8Sysutils18InitMonitorSupportEv
 0005:00001F44       System.SysUtils.$pdata$_ZZN6System8Sysutils18DoneMonitorSupportEvE10CleanStackPvPNS0_16TEventItemHolderE
 0005:00001F50       System.SysUtils.$pdata$_ZZN6System8Sysutils18DoneMonitorSupportEvE14CleanEventListPvPNS0_14TSyncEventItemEi
 0005:00001F5C       System.SysUtils.$pdata$_ZN6System8Sysutils18DoneMonitorSupportEv
 0005:00001F68       System.SysUtils.$pdata$_ZN6System8Sysutils21GetNetWkstaMajorMinorERjS1_
 0005:00001F74       System.SysUtils.$pdata$_ZN6System8Sysutils14InitPlatformIdEv
 0005:00001F80       System.SysUtils.$pdata$_ZN6System8Sysutils17GetProductVersionENS_13UnicodeStringERjS2_S2_
 0005:00001FA4       System.SysUtils.$pdata$_ZN6System8Sysutils11StrByteTypeEPwj
 0005:00001FB0       System.SysUtils.$pdata$_ZN6System8Sysutils13StrCharLengthEPKw
 0005:00001FBC       System.SysUtils.$pdata$_ZN6System8Sysutils10CharLengthENS_13UnicodeStringEi
 0005:00001FC8       System.SysUtils.$pdata$_ZN6System8Sysutils10AnsiStrPosEPwS1_
 0005:00001FD4       System.SysUtils.$pdata$_ZN6System8Sysutils12AnsiStrRScanEPww
 0005:00001FE0       System.SysUtils.$pdata$_ZZN6System8Sysutils13InitSysLocaleEvE13InitLeadBytesPv
 0005:00001FEC       System.SysUtils.$pdata$_ZN6System8Sysutils13InitSysLocaleEv
 0005:00001FF8       System.SysUtils.$pdata$_ZN6System8Sysutils17GetFormatSettingsEv
 0005:00002010       System.SysUtils.$pdata$_ZN6System8Sysutils19ClearFormatSettingsEv
 0005:0000201C       System.SysUtils.$pdata$_ZN6System8Sysutils13StringReplaceENS_13UnicodeStringES1_S1_NS_3SetINS0_19System_Sysutils__85ELS3_0ELS3_1EEE
 0005:00002034       System.SysUtils.$pdata$_ZN6System8Sysutils12HashNameMBCSEPc
 0005:00002040       System.SysUtils.$pdata$_ZN6System8Sysutils8HashNameEPc
 0005:0000204C       System.SysUtils.$pdata$_ZN6System8Sysutils15ClearHashTablesEv
 0005:00002058       System.SysUtils.$pdata$_ZN6System8Sysutils14ModuleUnloadedEy
 0005:00002064       System.SysUtils.$pdata$_ZN6System8Sysutils18FreeTerminateProcsEv
 0005:00002070       System.SysUtils.$pdata$_ZN6System8Sysutils17InitDriveSpacePtrEv
 0005:0000207C       System.SysUtils.$pdata$_ZN6System8Sysutils10FreeAndNilEPv
 0005:00002088       System.SysUtils.$pdata$_ZN6System8Sysutils19EnumLocalesCallbackEPw
 0005:00002094       System.SysUtils.$pdata$_ZN6System8Sysutils14GetLocaleDataWEjj
 0005:000020A0       System.SysUtils.$pdata$_ZN6System8Sysutils10TLanguages15LocalesCallbackEPw
 0005:000020B8       System.SysUtils.$pdata$_ZN6System8Sysutils10TLanguagesC3Ev
 0005:000020D0       System.SysUtils.$pdata$_ZN6System8Sysutils10TLanguagesD0Ev
 0005:000020DC       System.SysUtils.$pdata$_ZN6System8Sysutils10TLanguages8GetCountEv
 0005:000020E8       System.SysUtils.$pdata$_ZN6System8Sysutils10TLanguages6GetExtEi
 0005:000020F4       System.SysUtils.$pdata$_ZN6System8Sysutils10TLanguages5GetIDEi
 0005:0000210C       System.SysUtils.$pdata$_ZN6System8Sysutils10TLanguages11GetLocaleIDEi
 0005:00002118       System.SysUtils.$pdata$_ZN6System8Sysutils10TLanguages13GetLocaleNameEi
 0005:00002124       System.SysUtils.$pdata$_ZN6System8Sysutils10TLanguages7GetNameEi
 0005:00002130       System.SysUtils.$pdata$_ZN6System8Sysutils10TLanguages19GetNameFromLocaleIDEj
 0005:0000213C       System.SysUtils.$pdata$_ZN6System8Sysutils10TLanguages25GetLocaleIDFromLocaleNameENS_13UnicodeStringE
 0005:00002154       System.SysUtils.$pdata$_ZN6System8Sysutils10TLanguages15GetNameFromLCIDENS_13UnicodeStringE
 0005:00002160       System.SysUtils.$pdata$_ZN6System8Sysutils10TLanguages19GetLocaleIDFromNameENS_13UnicodeStringE
 0005:00002178       System.SysUtils.$pdata$_ZN6System8Sysutils10TLanguages7IndexOfEj
 0005:00002184       System.SysUtils.$pdata$_ZN6System8Sysutils10TLanguages7IndexOfENS_13UnicodeStringE
 0005:00002190       System.SysUtils.$pdata$_ZN6System8Sysutils10TLanguagesv04cdtrEv
 0005:0000219C       System.SysUtils.$pdata$_ZN6System8Sysutils9LanguagesEv
 0005:000021A8       System.SysUtils.$pdata$_ZN6System8Sysutils13TStringHelper9GetLengthEv
 0005:000021B4       System.SysUtils.$pdata$_ZN6System8Sysutils13TStringHelper7CompareENS_13UnicodeStringEiS2_iib
 0005:000021C0       System.SysUtils.$pdata$_ZN6System8Sysutils13TStringHelper15InternalCompareENS_13UnicodeStringEiS2_iiibj
 0005:000021CC       System.SysUtils.$pdata$_ZN6System8Sysutils13TStringHelper25InternalMapOptionsToFlagsENS_3SetINS0_14TCompareOptionELS3_0ELS3_9EEE
 0005:000021D8       System.SysUtils.$pdata$_ZN6System8Sysutils13TStringHelper15InternalCompareENS_13UnicodeStringEiS2_iiiNS_3SetINS0_14TCompareOptionELS4_0ELS4_9EEEj
 0005:000021E4       System.SysUtils.$pdata$_ZN6System8Sysutils13TStringHelper7CompareENS_13UnicodeStringEiS2_iibj
 0005:000021F0       System.SysUtils.$pdata$_ZN6System8Sysutils13TStringHelper6CreateEPKwi
 0005:000021FC       System.SysUtils.$pdata$_ZN6System8Sysutils13TStringHelper13LastDelimiterENS_13UnicodeStringE
 0005:00002208       System.SysUtils.$pdata$_ZN6System8Sysutils13TStringHelper7ReplaceEww
 0005:00002220       System.SysUtils.$pdata$_ZN6System8Sysutils13TStringHelper9SubstringEi
 0005:0000222C       System.SysUtils.$pdata$_ZN6System8Sysutils13TStringHelper9SubstringEii
 0005:00002238       System.SysUtils.$pdata$_ZN6System8Sysutils13TStringHelper11ToCharArrayEv
 0005:00002244       System.SysUtils.$pdata$_ZN6System8Sysutils13TStringHelper11ToCharArrayEii
 0005:00002250       System.SysUtils.$pdata$_ZZN6System8Sysutils10TOSVersionv04cctrEvE15IsWindowsServerPv
 0005:0000225C       System.SysUtils.$pdata$_ZN6System8Sysutils10TOSVersionv04cctrEv
 0005:00002268       System.SysUtils.$pdata$_ZN6System8Sysutils10TOSVersion5CheckEii
 0005:00002274       System.SysUtils.$pdata$_ZN6System8Sysutils12FinalizationEv
 0005:0000228C       System.SysUtils.$pdata$_ZN6System8Sysutils14initializationEv
 0005:000022A4       FullDebugMode_DLL_TestApp.$pdata$_ZN25Fulldebugmode_dll_testapp24TestFrameBasedStackTraceEv
 0005:000022B0       FullDebugMode_DLL_TestApp.$pdata$_ZN25Fulldebugmode_dll_testapp17TestRawStackTraceEv
 0005:000022BC       FullDebugMode_DLL_TestApp.$pdata$_ZN25Fulldebugmode_dll_testapp7RunTestEv
 0005:000022C8       FullDebugMode_DLL_TestApp.$pdata$_ZN25Fulldebugmode_dll_testapp12FinalizationEv
 0005:000022D4       FullDebugMode_DLL_TestApp.$pdata$_ZN25Fulldebugmode_dll_testapp14initializationEv


Line numbers for FullDebugMode_DLL_TestApp(FullDebugMode_DLL_TestApp.dpr) segment .text

    30 0001:00025FC0    32 0001:00025FD0    34 0001:00025FE0    37 0001:00025FF0
    38 0001:00025FF8    39 0001:0002600D    41 0001:00026022    42 0001:00026037
    43 0001:00026050    44 0001:00026070    47 0001:00026080    48 0001:00026088
    49 0001:0002609D    51 0001:000260B2    52 0001:000260C7    53 0001:000260E0
    54 0001:00026100    57 0001:00026110    58 0001:00026118    59 0001:0002611D
    60 0001:00026122    62 0001:00026140    63 0001:0002616C    64 0001:0002616D
    65 0001:00026172    67 0001:00026187    68 0001:0002618E    70 0001:000261E9
    68 0001:00026220    70 0001:00026230

Bound resource files

FullDebugMode_DLL_TestApp.res
FullDebugMode_DLL_TestApp.drf


Program entry point at 0001:00026140
